Certificate:
    Data:
        Version: 3 (0x2)
        Serial Number: 15 (0xf)
        Signature Algorithm: sha1WithRSAEncryption
        Issuer: C=fr, ST=RA, L=Grenoble, CN=www.blueeyevideo.com/emailAddress=info@blueeyevideo.com, O=BlueEyeVideo
        Validity
            Not Before: Sep 21 01:00:00 2011 GMT
            Not After : Sep 21 01:00:00 2012 GMT
        Subject: C=fr, ST=RA, L=GRENOBLE, O=demo, OU=Demo11, CN=www.blueeyevideo.com/emailAddress=info@blueeyevideo.com
        Subject Public Key Info:
            Public Key Algorithm: rsaEncryption
            RSA Public Key: (1024 bit)
                Modulus (1024 bit):
                    00:f2:22:1d:e9:50:55:3b:15:98:b9:f0:54:68:9b:
                    9f:5f:3e:86:41:cb:f5:9f:11:43:39:16:2e:49:82:
                    fa:48:6a:21:46:b9:41:af:28:e2:71:2c:de:1c:b0:
                    ff:33:3d:e9:91:9e:56:7c:f7:fb:70:82:79:26:31:
                    08:35:4e:de:be:f0:08:51:95:ad:77:71:ba:d9:fe:
                    77:14:20:40:9d:95:a5:fd:88:f7:46:81:33:91:c9:
                    ec:70:e2:ea:0e:ab:bb:17:2a:4b:e9:20:01:39:aa:
                    e5:53:cb:23:d0:2e:c4:3d:23:31:84:43:03:b0:19:
                    8e:4c:f4:09:1a:b4:02:7d:6d
                Exponent: 65537 (0x10001)
        X509v3 extensions:
            X509v3 Basic Constraints: 
                CA:FALSE
            Netscape Cert Type: 
                SSL Client
            X509v3 Key Usage: 
                Digital Signature, Key Encipherment
            X509v3 Extended Key Usage: 
                TLS Web Client Authentication
            Netscape Comment: 
                OpenSSL Certificate for SSL Client
    Signature Algorithm: sha1WithRSAEncryption
        14:48:2e:95:ba:47:7a:38:b7:a1:94:2e:52:37:10:32:a9:03:
        db:c7:cc:aa:8f:b3:cb:8c:5d:1f:ea:70:68:f3:e5:fa:46:47:
        4b:b9:7c:46:47:29:ce:50:c8:73:dd:b8:ed:8b:f5:d5:95:31:
        5b:a5:e3:5f:a2:46:de:15:20:f7:10:82:c5:c8:98:99:40:b6:
        6a:f6:f0:44:a7:70:c7:21:d5:59:92:65:f4:33:47:f8:c9:c9:
        cc:53:7e:15:03:01:32:9a:29:1e:79:f3:05:74:42:f0:65:9d:
        29:e0:46:92:b9:be:4c:22:5e:95:48:9a:33:29:a1:28:98:c6:
        92:9b
-----BEGIN CERTIFICATE-----
MIIDCDCCAnGgAwIBAgIBDzANBgkqhkiG9w0BAQUFADCBiTELMAkGA1UEBhMCZnIx
CzAJBgNVBAgTAlJBMREwDwYDVQQHEwhHcmVub2JsZTEdMBsGA1UEAxMUd3d3LmJs
dWVleWV2aWRlby5jb20xJDAiBgkqhkiG9w0BCQEWFWluZm9AYmx1ZWV5ZXZpZGVv
LmNvbTEVMBMGA1UEChMMQmx1ZUV5ZVZpZGVvMB4XDTExMDkyMTAxMDAwMFoXDTEy
MDkyMTAxMDAwMFowgZIxCzAJBgNVBAYTAmZyMQswCQYDVQQIEwJSQTERMA8GA1UE
BxMIR1JFTk9CTEUxDTALBgNVBAoTBGRlbW8xDzANBgNVBAsTBkRlbW8xMTEdMBsG
A1UEAxMUd3d3LmJsdWVleWV2aWRlby5jb20xJDAiBgkqhkiG9w0BCQEWFWluZm9A
Ymx1ZWV5ZXZpZGVvLmNvbTCBnzANBgkqhkiG9w0BAQEFAAOBjQAwgYkCgYEA8iId
6VBVOxWYufBUaJufXz6GQcv1nxFDORYuSYL6SGohRrlBryjicSzeHLD/Mz3pkZ5W
fPf7cIJ5JjEINU7evvAIUZWtd3G62f53FCBAnZWl/Yj3RoEzkcnscOLqDqu7FypL
6SABOarlU8sj0C7EPSMxhEMDsBmOTPQJGrQCfW0CAwEAAaN1MHMwCQYDVR0TBAIw
ADARBglghkgBhvhCAQEEBAMCB4AwCwYDVR0PBAQDAgWgMBMGA1UdJQQMMAoGCCsG
AQUFBwMCMDEGCWCGSAGG+EIBDQQkFiJPcGVuU1NMIENlcnRpZmljYXRlIGZvciBT
U0wgQ2xpZW50MA0GCSqGSIb3DQEBBQUAA4GBABRILpW6R3o4t6GULlI3EDKpA9vH
zKqPs8uMXR/qcGjz5fpGR0u5fEZHKc5QyHPduO2L9dWVMVul41+iRt4VIPcQgsXI
mJlAtmr28ESncMch1VmSZfQzR/jJycxTfhUDATKaKR558wV0QvBlnSngRpK5vkwi
XpVImjMpoSiYxpKb
-----END CERTIFICATE-----
