Certificate:
    Data:
        Version: 3 (0x2)
        Serial Number: 20 (0x14)
        Signature Algorithm: sha1WithRSAEncryption
        Issuer: C=fr, ST=RA, L=Grenoble, CN=www.blueeyevideo.com/emailAddress=info@blueeyevideo.com, O=BlueEyeVideo
        Validity
            Not Before: Oct  8 01:00:00 2012 GMT
            Not After : Oct  8 01:00:00 2013 GMT
        Subject: C=fr, ST=RA, L=GRENOBLE, O=Demo01, OU=demo_2012, CN=www.blueeyevideo.com/emailAddress=info@blueeyevideo.com
        Subject Public Key Info:
            Public Key Algorithm: rsaEncryption
            RSA Public Key: (1024 bit)
                Modulus (1024 bit):
                    00:c5:61:03:42:ca:a8:a5:1c:ae:e8:7d:63:d4:d0:
                    bc:cc:5b:86:4e:fb:7a:36:2c:2c:a9:b8:c4:57:5b:
                    b0:d9:db:f6:46:d6:a6:3a:5c:63:ab:3a:07:fa:9f:
                    a9:d5:a4:46:42:34:3d:69:a7:b6:ac:a1:e8:00:a8:
                    93:7e:60:22:0c:b1:2b:cd:82:dc:93:46:58:c2:06:
                    bb:a9:92:66:2d:88:2d:19:ee:15:5f:3b:0c:83:4f:
                    3e:89:5f:45:67:ad:e7:58:c0:ff:ec:38:a2:4d:4b:
                    c0:84:e8:4b:c9:32:f3:12:4d:1d:37:3d:0a:8c:b0:
                    b8:6e:11:f8:c8:34:31:08:c7
                Exponent: 65537 (0x10001)
        X509v3 extensions:
            X509v3 Basic Constraints: 
                CA:FALSE
            Netscape Cert Type: 
                SSL Client
            X509v3 Key Usage: 
                Digital Signature, Key Encipherment
            X509v3 Extended Key Usage: 
                TLS Web Client Authentication
            Netscape Comment: 
                OpenSSL Certificate for SSL Client
    Signature Algorithm: sha1WithRSAEncryption
        a6:77:3f:0f:3f:08:d3:67:ff:e9:f7:ad:bf:72:01:37:46:ed:
        ea:5a:6f:4b:f5:ab:5e:36:17:bc:cb:d5:4d:7b:b7:c5:f2:9c:
        78:bc:c4:5a:e6:07:ed:ee:a8:b0:68:89:a4:18:47:a1:c2:7e:
        91:05:59:1b:33:b2:83:1a:c2:69:6b:eb:00:6d:b3:9c:55:f7:
        c8:79:49:42:f0:20:43:0c:00:79:6a:f8:0b:c8:bc:a0:91:f4:
        e9:c6:fc:74:b4:6a:47:a7:ba:14:28:bf:37:cb:34:fe:bf:73:
        81:6a:49:7d:58:41:f1:9a:dc:4f:69:1b:10:a1:b6:36:2b:6c:
        5e:f6
-----BEGIN CERTIFICATE-----
MIIDDTCCAnagAwIBAgIBFDANBgkqhkiG9w0BAQUFADCBiTELMAkGA1UEBhMCZnIx
CzAJBgNVBAgTAlJBMREwDwYDVQQHEwhHcmVub2JsZTEdMBsGA1UEAxMUd3d3LmJs
dWVleWV2aWRlby5jb20xJDAiBgkqhkiG9w0BCQEWFWluZm9AYmx1ZWV5ZXZpZGVv
LmNvbTEVMBMGA1UEChMMQmx1ZUV5ZVZpZGVvMB4XDTEyMTAwODAxMDAwMFoXDTEz
MTAwODAxMDAwMFowgZcxCzAJBgNVBAYTAmZyMQswCQYDVQQIEwJSQTERMA8GA1UE
BxMIR1JFTk9CTEUxDzANBgNVBAoTBkRlbW8wMTESMBAGA1UECxQJZGVtb18yMDEy
MR0wGwYDVQQDExR3d3cuYmx1ZWV5ZXZpZGVvLmNvbTEkMCIGCSqGSIb3DQEJARYV
aW5mb0BibHVlZXlldmlkZW8uY29tMIGfMA0GCSqGSIb3DQEBAQUAA4GNADCBiQKB
gQDFYQNCyqilHK7ofWPU0LzMW4ZO+3o2LCypuMRXW7DZ2/ZG1qY6XGOrOgf6n6nV
pEZCND1pp7asoegAqJN+YCIMsSvNgtyTRljCBrupkmYtiC0Z7hVfOwyDTz6JX0Vn
redYwP/sOKJNS8CE6EvJMvMSTR03PQqMsLhuEfjINDEIxwIDAQABo3UwczAJBgNV
HRMEAjAAMBEGCWCGSAGG+EIBAQQEAwIHgDALBgNVHQ8EBAMCBaAwEwYDVR0lBAww
CgYIKwYBBQUHAwIwMQYJYIZIAYb4QgENBCQWIk9wZW5TU0wgQ2VydGlmaWNhdGUg
Zm9yIFNTTCBDbGllbnQwDQYJKoZIhvcNAQEFBQADgYEApnc/Dz8I02f/6fetv3IB
N0bt6lpvS/WrXjYXvMvVTXu3xfKceLzEWuYH7e6osGiJpBhHocJ+kQVZGzOygxrC
aWvrAG2znFX3yHlJQvAgQwwAeWr4C8i8oJH06cb8dLRqR6e6FCi/N8s0/r9zgWpJ
fVhB8ZrcT2kbEKG2NitsXvY=
-----END CERTIFICATE-----
