Certificate:
    Data:
        Version: 3 (0x2)
        Serial Number: 16 (0x10)
        Signature Algorithm: sha1WithRSAEncryption
        Issuer: C=fr, ST=RA, L=Grenoble, CN=www.blueeyevideo.com/emailAddress=info@blueeyevideo.com, O=BlueEyeVideo
        Validity
            Not Before: Sep 28 01:00:00 2011 GMT
            Not After : Sep 28 01:00:00 2012 GMT
        Subject: C=fr, ST=RA, L=GRENOBLE, O=Demo01, OU=Demo_2011, CN=www.blueeyevideo.com/emailAddress=info@blueeyevideo.com
        Subject Public Key Info:
            Public Key Algorithm: rsaEncryption
            RSA Public Key: (1024 bit)
                Modulus (1024 bit):
                    00:ac:13:3d:5b:91:65:15:db:3e:03:3f:53:a0:2b:
                    99:60:33:b6:a0:d9:dd:d4:7b:3e:f0:2a:1a:d4:ef:
                    61:c8:c5:bf:33:c5:83:59:7d:d6:35:96:01:87:3d:
                    b9:3f:05:be:15:c0:05:54:26:bc:ca:84:a5:b0:81:
                    1b:aa:53:ea:4c:a3:e3:7d:49:71:eb:08:cb:99:37:
                    d1:df:9c:d3:d9:df:c3:2e:b4:a0:7f:76:fe:50:d6:
                    d3:c4:21:af:12:0f:a3:d4:c4:5e:c6:8b:65:02:1c:
                    86:11:a0:1c:e1:d8:c8:4c:4a:e8:2a:70:21:be:aa:
                    94:15:04:08:e6:8f:c3:cd:e1
                Exponent: 65537 (0x10001)
        X509v3 extensions:
            X509v3 Basic Constraints: 
                CA:FALSE
            Netscape Cert Type: 
                SSL Client
            X509v3 Key Usage: 
                Digital Signature, Key Encipherment
            X509v3 Extended Key Usage: 
                TLS Web Client Authentication
            Netscape Comment: 
                OpenSSL Certificate for SSL Client
    Signature Algorithm: sha1WithRSAEncryption
        24:d4:f9:ed:0d:c7:7b:30:d4:ef:f4:7b:83:47:77:c0:11:6a:
        55:50:c5:dc:bf:3d:11:0c:84:f6:75:75:38:0c:3e:da:c8:87:
        3c:be:d0:ca:57:55:07:38:fa:2d:e4:ea:76:5d:fc:14:a9:7c:
        d2:83:95:bc:47:40:74:bd:07:62:ba:26:9a:8c:e7:fb:e2:34:
        c7:4e:2d:95:e3:d1:a6:0d:23:3c:e2:89:37:e4:73:e0:f1:64:
        45:78:c9:45:98:86:0d:4b:df:78:fd:ef:10:83:39:b0:d3:2d:
        34:2c:47:04:94:a0:f0:e5:65:8a:5c:05:31:06:9f:07:bc:62:
        ef:5d
-----BEGIN CERTIFICATE-----
MIIDDTCCAnagAwIBAgIBEDANBgkqhkiG9w0BAQUFADCBiTELMAkGA1UEBhMCZnIx
CzAJBgNVBAgTAlJBMREwDwYDVQQHEwhHcmVub2JsZTEdMBsGA1UEAxMUd3d3LmJs
dWVleWV2aWRlby5jb20xJDAiBgkqhkiG9w0BCQEWFWluZm9AYmx1ZWV5ZXZpZGVv
LmNvbTEVMBMGA1UEChMMQmx1ZUV5ZVZpZGVvMB4XDTExMDkyODAxMDAwMFoXDTEy
MDkyODAxMDAwMFowgZcxCzAJBgNVBAYTAmZyMQswCQYDVQQIEwJSQTERMA8GA1UE
BxMIR1JFTk9CTEUxDzANBgNVBAoTBkRlbW8wMTESMBAGA1UECxQJRGVtb18yMDEx
MR0wGwYDVQQDExR3d3cuYmx1ZWV5ZXZpZGVvLmNvbTEkMCIGCSqGSIb3DQEJARYV
aW5mb0BibHVlZXlldmlkZW8uY29tMIGfMA0GCSqGSIb3DQEBAQUAA4GNADCBiQKB
gQCsEz1bkWUV2z4DP1OgK5lgM7ag2d3Uez7wKhrU72HIxb8zxYNZfdY1lgGHPbk/
Bb4VwAVUJrzKhKWwgRuqU+pMo+N9SXHrCMuZN9HfnNPZ38MutKB/dv5Q1tPEIa8S
D6PUxF7Gi2UCHIYRoBzh2MhMSugqcCG+qpQVBAjmj8PN4QIDAQABo3UwczAJBgNV
HRMEAjAAMBEGCWCGSAGG+EIBAQQEAwIHgDALBgNVHQ8EBAMCBaAwEwYDVR0lBAww
CgYIKwYBBQUHAwIwMQYJYIZIAYb4QgENBCQWIk9wZW5TU0wgQ2VydGlmaWNhdGUg
Zm9yIFNTTCBDbGllbnQwDQYJKoZIhvcNAQEFBQADgYEAJNT57Q3HezDU7/R7g0d3
wBFqVVDF3L89EQyE9nV1OAw+2siHPL7QyldVBzj6LeTqdl38FKl80oOVvEdAdL0H
Yrommozn++I0x04tlePRpg0jPOKJN+Rz4PFkRXjJRZiGDUvfeP3vEIM5sNMtNCxH
BJSg8OVlilwFMQafB7xi710=
-----END CERTIFICATE-----
