Certificate:
    Data:
        Version: 3 (0x2)
        Serial Number: 12 (0xc)
        Signature Algorithm: sha1WithRSAEncryption
        Issuer: C=fr, ST=RA, L=Grenoble, CN=www.blueeyevideo.com/emailAddress=info@blueeyevideo.com, O=BlueEyeVideo
        Validity
            Not Before: Feb  1 01:00:00 2011 GMT
            Not After : Dec  2 01:00:00 2011 GMT
        Subject: C=fr, ST=RA, L=GRENOBLE, O=Demo01, OU=lan, CN=www.blueeyevideo.com/emailAddress=info@blueeyevideo.com
        Subject Public Key Info:
            Public Key Algorithm: rsaEncryption
            RSA Public Key: (1024 bit)
                Modulus (1024 bit):
                    00:c7:21:cf:9d:7f:02:ec:17:d1:38:82:fc:d0:32:
                    40:bc:b3:cb:ec:e5:2d:6e:ab:5a:73:3b:e9:58:86:
                    38:a1:07:5f:a1:61:56:3c:2e:a1:34:d0:6c:b2:9c:
                    d1:0f:17:3d:78:ae:43:17:e9:3e:73:a3:36:f1:5c:
                    17:a4:33:b9:ba:81:6e:fc:b5:fd:26:4d:41:56:e9:
                    f1:ce:d0:15:e1:e1:2a:04:79:4c:17:3d:57:3c:37:
                    b3:82:d3:0e:6a:e6:7a:eb:56:3a:7e:85:a6:2f:4b:
                    d9:72:a9:67:a2:77:8f:c9:9c:20:67:18:4f:4c:33:
                    0b:4b:26:a1:b7:43:56:92:d5
                Exponent: 65537 (0x10001)
        X509v3 extensions:
            X509v3 Basic Constraints: 
                CA:FALSE
            Netscape Cert Type: 
                SSL Client
            X509v3 Key Usage: 
                Digital Signature, Key Encipherment
            X509v3 Extended Key Usage: 
                TLS Web Client Authentication
            Netscape Comment: 
                OpenSSL Certificate for SSL Client
    Signature Algorithm: sha1WithRSAEncryption
        33:84:3d:65:31:be:5e:e3:f4:17:f7:d7:e4:6c:06:f8:1b:a9:
        b3:3a:83:23:ce:90:ec:0b:92:7d:f6:f2:a1:cb:d0:c3:5e:b4:
        c2:c8:32:e4:5f:f5:9e:83:44:36:4b:42:35:04:1b:43:b8:1c:
        d2:4a:f4:27:7f:27:48:c4:ac:22:bc:6f:3c:0a:be:59:0c:8c:
        d9:d2:9b:e5:d8:04:cb:8f:fb:7a:9e:0e:5b:d1:43:b3:a1:11:
        d0:da:b5:95:3e:65:e8:03:1b:bb:93:1d:38:94:bf:6c:52:ac:
        17:92:f9:b7:20:2f:02:d7:c7:81:22:47:3c:3e:d8:73:d4:77:
        fb:35
-----BEGIN CERTIFICATE-----
MIIDBzCCAnCgAwIBAgIBDDANBgkqhkiG9w0BAQUFADCBiTELMAkGA1UEBhMCZnIx
CzAJBgNVBAgTAlJBMREwDwYDVQQHEwhHcmVub2JsZTEdMBsGA1UEAxMUd3d3LmJs
dWVleWV2aWRlby5jb20xJDAiBgkqhkiG9w0BCQEWFWluZm9AYmx1ZWV5ZXZpZGVv
LmNvbTEVMBMGA1UEChMMQmx1ZUV5ZVZpZGVvMB4XDTExMDIwMTAxMDAwMFoXDTEx
MTIwMjAxMDAwMFowgZExCzAJBgNVBAYTAmZyMQswCQYDVQQIEwJSQTERMA8GA1UE
BxMIR1JFTk9CTEUxDzANBgNVBAoTBkRlbW8wMTEMMAoGA1UECxMDbGFuMR0wGwYD
VQQDExR3d3cuYmx1ZWV5ZXZpZGVvLmNvbTEkMCIGCSqGSIb3DQEJARYVaW5mb0Bi
bHVlZXlldmlkZW8uY29tMIGfMA0GCSqGSIb3DQEBAQUAA4GNADCBiQKBgQDHIc+d
fwLsF9E4gvzQMkC8s8vs5S1uq1pzO+lYhjihB1+hYVY8LqE00GyynNEPFz14rkMX
6T5zozbxXBekM7m6gW78tf0mTUFW6fHO0BXh4SoEeUwXPVc8N7OC0w5q5nrrVjp+
haYvS9lyqWeid4/JnCBnGE9MMwtLJqG3Q1aS1QIDAQABo3UwczAJBgNVHRMEAjAA
MBEGCWCGSAGG+EIBAQQEAwIHgDALBgNVHQ8EBAMCBaAwEwYDVR0lBAwwCgYIKwYB
BQUHAwIwMQYJYIZIAYb4QgENBCQWIk9wZW5TU0wgQ2VydGlmaWNhdGUgZm9yIFNT
TCBDbGllbnQwDQYJKoZIhvcNAQEFBQADgYEAM4Q9ZTG+XuP0F/fX5GwG+BupszqD
I86Q7AuSffbyocvQw160wsgy5F/1noNENktCNQQbQ7gc0kr0J38nSMSsIrxvPAq+
WQyM2dKb5dgEy4/7ep4OW9FDs6ER0Nq1lT5l6AMbu5MdOJS/bFKsF5L5tyAvAtfH
gSJHPD7Yc9R3+zU=
-----END CERTIFICATE-----
