Certificate:
    Data:
        Version: 3 (0x2)
        Serial Number: 9 (0x9)
        Signature Algorithm: sha1WithRSAEncryption
        Issuer: C=fr, ST=RA, L=Grenoble, CN=www.blueeyevideo.com/emailAddress=info@blueeyevideo.com, O=BlueEyeVideo
        Validity
            Not Before: Jan 25 01:00:00 2011 GMT
            Not After : Jan  1 01:00:00 1970 GMT
        Subject: C=fr, ST=RA, L=GRENOBLE, O=Demo01, OU=DemoUnlim, CN=www.blueeyevideo.com/emailAddress=info@blueeyevideo.com
        Subject Public Key Info:
            Public Key Algorithm: rsaEncryption
            RSA Public Key: (1024 bit)
                Modulus (1024 bit):
                    00:ad:08:cc:c0:f6:11:01:e1:63:6f:89:8b:21:d7:
                    0e:ba:fe:e7:5a:04:b9:65:5a:01:08:66:fd:41:bb:
                    98:2a:70:01:a9:e6:2e:82:39:0b:04:87:6b:ad:48:
                    ec:f4:d8:60:40:86:c5:09:d0:5e:cd:9c:44:6a:89:
                    84:2f:bd:5b:3b:49:7e:bf:64:db:89:49:d6:f7:26:
                    bc:19:30:d6:6f:3f:1f:a9:9c:de:63:e3:82:87:0a:
                    ff:74:55:83:a0:21:91:03:f4:da:76:0b:2e:59:25:
                    95:6c:cd:23:99:17:34:40:df:62:e9:db:bc:a6:11:
                    3e:7f:83:8d:8f:82:7d:6c:e5
                Exponent: 65537 (0x10001)
        X509v3 extensions:
            X509v3 Basic Constraints: 
                CA:FALSE
            Netscape Cert Type: 
                SSL Client
            X509v3 Key Usage: 
                Digital Signature, Key Encipherment
            X509v3 Extended Key Usage: 
                TLS Web Client Authentication
            Netscape Comment: 
                OpenSSL Certificate for SSL Client
    Signature Algorithm: sha1WithRSAEncryption
        a5:e4:64:75:b9:15:91:06:c8:39:7c:0e:4b:cd:26:ee:47:9d:
        7f:f4:8a:45:f0:04:68:cf:1d:ff:20:1d:df:36:5d:fc:e0:19:
        fd:fe:4b:03:0c:43:c6:e8:8d:37:a9:5f:f6:e4:5d:02:dc:71:
        eb:23:d5:d1:98:89:86:9f:b8:60:49:12:31:04:57:f3:57:1a:
        86:27:51:2d:cc:69:77:8a:f6:ca:eb:c1:27:c8:9b:69:42:cd:
        d9:01:d4:c5:0b:fc:54:72:84:a2:85:18:75:48:54:9c:88:b7:
        18:d0:15:61:ad:cb:37:dc:79:a4:0c:32:1b:77:c9:a8:15:3f:
        f4:b4
-----BEGIN CERTIFICATE-----
MIIDDTCCAnagAwIBAgIBCTANBgkqhkiG9w0BAQUFADCBiTELMAkGA1UEBhMCZnIx
CzAJBgNVBAgTAlJBMREwDwYDVQQHEwhHcmVub2JsZTEdMBsGA1UEAxMUd3d3LmJs
dWVleWV2aWRlby5jb20xJDAiBgkqhkiG9w0BCQEWFWluZm9AYmx1ZWV5ZXZpZGVv
LmNvbTEVMBMGA1UEChMMQmx1ZUV5ZVZpZGVvMB4XDTExMDEyNTAxMDAwMFoXDTcw
MDEwMTAxMDAwMFowgZcxCzAJBgNVBAYTAmZyMQswCQYDVQQIEwJSQTERMA8GA1UE
BxMIR1JFTk9CTEUxDzANBgNVBAoTBkRlbW8wMTESMBAGA1UECxMJRGVtb1VubGlt
MR0wGwYDVQQDExR3d3cuYmx1ZWV5ZXZpZGVvLmNvbTEkMCIGCSqGSIb3DQEJARYV
aW5mb0BibHVlZXlldmlkZW8uY29tMIGfMA0GCSqGSIb3DQEBAQUAA4GNADCBiQKB
gQCtCMzA9hEB4WNviYsh1w66/udaBLllWgEIZv1Bu5gqcAGp5i6COQsEh2utSOz0
2GBAhsUJ0F7NnERqiYQvvVs7SX6/ZNuJSdb3JrwZMNZvPx+pnN5j44KHCv90VYOg
IZED9Np2Cy5ZJZVszSOZFzRA32Lp27ymET5/g42Pgn1s5QIDAQABo3UwczAJBgNV
HRMEAjAAMBEGCWCGSAGG+EIBAQQEAwIHgDALBgNVHQ8EBAMCBaAwEwYDVR0lBAww
CgYIKwYBBQUHAwIwMQYJYIZIAYb4QgENBCQWIk9wZW5TU0wgQ2VydGlmaWNhdGUg
Zm9yIFNTTCBDbGllbnQwDQYJKoZIhvcNAQEFBQADgYEApeRkdbkVkQbIOXwOS80m
7kedf/SKRfAEaM8d/yAd3zZd/OAZ/f5LAwxDxuiNN6lf9uRdAtxx6yPV0ZiJhp+4
YEkSMQRX81cahidRLcxpd4r2yuvBJ8ibaULN2QHUxQv8VHKEooUYdUhUnIi3GNAV
Ya3LN9x5pAwyG3fJqBU/9LQ=
-----END CERTIFICATE-----
