Certificate:
    Data:
        Version: 3 (0x2)
        Serial Number: 13 (0xd)
        Signature Algorithm: sha1WithRSAEncryption
        Issuer: C=fr, ST=RA, L=Grenoble, CN=www.blueeyevideo.com/emailAddress=info@blueeyevideo.com, O=BlueEyeVideo
        Validity
            Not Before: Aug  8 01:00:00 2011 GMT
            Not After : Aug  8 01:00:00 2012 GMT
        Subject: C=fr, ST=RA, L=GRENOBLE, O=PIP, OU=PIP_2011, CN=www.blueeyevideo.com/emailAddress=info@blueeyevideo.com
        Subject Public Key Info:
            Public Key Algorithm: rsaEncryption
            RSA Public Key: (1024 bit)
                Modulus (1024 bit):
                    00:ef:f1:f1:bb:8c:f1:8b:31:45:fe:78:fc:6e:8b:
                    44:1b:05:a6:7e:79:c8:9e:dc:c6:3a:db:59:ab:80:
                    37:d3:b2:4f:6d:41:1d:8c:db:8a:03:17:f9:85:f0:
                    d2:8f:d3:3b:fb:ec:c3:59:3f:a9:6a:fc:5d:92:38:
                    4a:a7:42:38:38:f2:ec:98:5b:59:49:5d:e6:b7:c2:
                    01:5d:6e:c1:87:4d:20:e2:68:a1:d6:49:52:a3:43:
                    91:ec:f4:50:c5:35:62:99:fc:db:95:4a:28:3a:2c:
                    ba:c3:e7:36:a2:f3:05:ee:35:c2:6b:4e:ae:43:de:
                    80:e2:04:76:bc:5e:fb:41:fd
                Exponent: 65537 (0x10001)
        X509v3 extensions:
            X509v3 Basic Constraints: 
                CA:FALSE
            Netscape Cert Type: 
                SSL Client
            X509v3 Key Usage: 
                Digital Signature, Key Encipherment
            X509v3 Extended Key Usage: 
                TLS Web Client Authentication
            Netscape Comment: 
                OpenSSL Certificate for SSL Client
    Signature Algorithm: sha1WithRSAEncryption
        9a:c8:35:9b:bc:03:60:18:10:fc:85:fb:85:0d:55:ee:96:b2:
        d3:db:e8:95:be:9a:cb:8d:d8:45:49:06:46:1c:d5:d0:ad:b0:
        6d:af:9a:c8:d9:ff:09:ad:61:78:77:c2:d4:9b:e7:5b:f7:e3:
        f5:37:f5:04:c0:ae:fb:5e:a9:c1:5b:f8:26:e8:c6:ca:2e:df:
        56:99:a5:c5:19:5a:d1:7b:52:ff:18:3d:e3:53:ec:3a:f2:c2:
        1c:b5:40:83:9f:e5:b6:5c:74:ee:07:de:c1:78:14:30:db:8c:
        76:c8:6a:31:b9:bf:42:c1:18:f1:58:cf:42:a6:17:89:74:f2:
        66:9b
-----BEGIN CERTIFICATE-----
MIIDCTCCAnKgAwIBAgIBDTANBgkqhkiG9w0BAQUFADCBiTELMAkGA1UEBhMCZnIx
CzAJBgNVBAgTAlJBMREwDwYDVQQHEwhHcmVub2JsZTEdMBsGA1UEAxMUd3d3LmJs
dWVleWV2aWRlby5jb20xJDAiBgkqhkiG9w0BCQEWFWluZm9AYmx1ZWV5ZXZpZGVv
LmNvbTEVMBMGA1UEChMMQmx1ZUV5ZVZpZGVvMB4XDTExMDgwODAxMDAwMFoXDTEy
MDgwODAxMDAwMFowgZMxCzAJBgNVBAYTAmZyMQswCQYDVQQIEwJSQTERMA8GA1UE
BxMIR1JFTk9CTEUxDDAKBgNVBAoTA1BJUDERMA8GA1UECxQIUElQXzIwMTExHTAb
BgNVBAMTFHd3dy5ibHVlZXlldmlkZW8uY29tMSQwIgYJKoZIhvcNAQkBFhVpbmZv
QGJsdWVleWV2aWRlby5jb20wgZ8wDQYJKoZIhvcNAQEBBQADgY0AMIGJAoGBAO/x
8buM8YsxRf54/G6LRBsFpn55yJ7cxjrbWauAN9OyT21BHYzbigMX+YXw0o/TO/vs
w1k/qWr8XZI4SqdCODjy7JhbWUld5rfCAV1uwYdNIOJoodZJUqNDkez0UMU1Ypn8
25VKKDosusPnNqLzBe41wmtOrkPegOIEdrxe+0H9AgMBAAGjdTBzMAkGA1UdEwQC
MAAwEQYJYIZIAYb4QgEBBAQDAgeAMAsGA1UdDwQEAwIFoDATBgNVHSUEDDAKBggr
BgEFBQcDAjAxBglghkgBhvhCAQ0EJBYiT3BlblNTTCBDZXJ0aWZpY2F0ZSBmb3Ig
U1NMIENsaWVudDANBgkqhkiG9w0BAQUFAAOBgQCayDWbvANgGBD8hfuFDVXulrLT
2+iVvprLjdhFSQZGHNXQrbBtr5rI2f8JrWF4d8LUm+db9+P1N/UEwK77XqnBW/gm
6MbKLt9WmaXFGVrRe1L/GD3jU+w68sIctUCDn+W2XHTuB97BeBQw24x2yGoxub9C
wRjxWM9CpheJdPJmmw==
-----END CERTIFICATE-----
