Certificate:
    Data:
        Version: 3 (0x2)
        Serial Number: 29 (0x1d)
        Signature Algorithm: sha1WithRSAEncryption
        Issuer: C=fr, ST=RA, L=Grenoble, CN=www.blueeyevideo.com/emailAddress=info@blueeyevideo.com, O=BlueEyeVideo
        Validity
            Not Before: Aug  1 01:00:00 2015 GMT
            Not After : Aug 31 01:00:00 2017 GMT
        Subject: C=fr, ST=RA, L=GRENOBLE, O=PIP, OU=PIP201516, CN=www.blueeyevideo.com/emailAddress=info@blueeyevideo.com
        Subject Public Key Info:
            Public Key Algorithm: rsaEncryption
            RSA Public Key: (1024 bit)
                Modulus (1024 bit):
                    00:cc:87:59:f2:59:a5:f1:d8:4f:60:a9:a5:50:cd:
                    11:9d:e4:69:4a:d1:84:d6:ef:f8:00:e1:90:25:2c:
                    b9:a9:33:61:df:99:45:9b:4d:30:4a:ae:b8:e5:8a:
                    b2:9b:2e:9e:fc:e8:09:11:85:b4:7d:2e:da:a2:03:
                    0e:d8:37:b7:67:4e:8e:8d:d2:41:b1:a7:40:48:29:
                    01:1f:8a:33:50:ec:06:d0:56:3d:db:49:3d:c6:de:
                    b7:58:a7:36:83:e4:bc:df:77:65:fc:c3:5a:8c:3e:
                    8a:52:c1:a1:16:23:04:9a:a7:1a:13:ce:93:0d:5a:
                    e7:ad:05:e7:a3:47:97:be:09
                Exponent: 65537 (0x10001)
        X509v3 extensions:
            X509v3 Basic Constraints: 
                CA:FALSE
            Netscape Cert Type: 
                SSL Client
            X509v3 Key Usage: 
                Digital Signature, Key Encipherment
            X509v3 Extended Key Usage: 
                TLS Web Client Authentication
            Netscape Comment: 
                OpenSSL Certificate for SSL Client
    Signature Algorithm: sha1WithRSAEncryption
        5e:04:01:c9:c7:b4:59:ef:ed:a9:bb:81:ea:89:cf:5b:56:ee:
        08:93:3e:b6:62:da:f0:29:09:59:bc:d6:f2:a1:cd:27:53:1b:
        09:fd:f3:ce:92:74:1d:51:04:b5:58:d3:59:5a:96:d1:84:df:
        a4:7d:86:30:65:8b:2a:0a:ba:e1:48:08:bd:24:02:c0:85:6b:
        5d:d2:d7:39:89:86:b7:49:79:26:f2:10:42:31:56:35:d4:23:
        47:1f:5c:34:97:59:53:00:aa:d7:99:47:6d:62:49:ff:2f:9b:
        8d:84:e8:5b:45:97:89:36:3f:fa:9c:95:eb:1b:4c:d0:74:bd:
        7f:63
-----BEGIN CERTIFICATE-----
MIIDCjCCAnOgAwIBAgIBHTANBgkqhkiG9w0BAQUFADCBiTELMAkGA1UEBhMCZnIx
CzAJBgNVBAgTAlJBMREwDwYDVQQHEwhHcmVub2JsZTEdMBsGA1UEAxMUd3d3LmJs
dWVleWV2aWRlby5jb20xJDAiBgkqhkiG9w0BCQEWFWluZm9AYmx1ZWV5ZXZpZGVv
LmNvbTEVMBMGA1UEChMMQmx1ZUV5ZVZpZGVvMB4XDTE1MDgwMTAxMDAwMFoXDTE3
MDgzMTAxMDAwMFowgZQxCzAJBgNVBAYTAmZyMQswCQYDVQQIEwJSQTERMA8GA1UE
BxMIR1JFTk9CTEUxDDAKBgNVBAoTA1BJUDESMBAGA1UECxMJUElQMjAxNTE2MR0w
GwYDVQQDExR3d3cuYmx1ZWV5ZXZpZGVvLmNvbTEkMCIGCSqGSIb3DQEJARYVaW5m
b0BibHVlZXlldmlkZW8uY29tMIGfMA0GCSqGSIb3DQEBAQUAA4GNADCBiQKBgQDM
h1nyWaXx2E9gqaVQzRGd5GlK0YTW7/gA4ZAlLLmpM2HfmUWbTTBKrrjlirKbLp78
6AkRhbR9LtqiAw7YN7dnTo6N0kGxp0BIKQEfijNQ7AbQVj3bST3G3rdYpzaD5Lzf
d2X8w1qMPopSwaEWIwSapxoTzpMNWuetBeejR5e+CQIDAQABo3UwczAJBgNVHRME
AjAAMBEGCWCGSAGG+EIBAQQEAwIHgDALBgNVHQ8EBAMCBaAwEwYDVR0lBAwwCgYI
KwYBBQUHAwIwMQYJYIZIAYb4QgENBCQWIk9wZW5TU0wgQ2VydGlmaWNhdGUgZm9y
IFNTTCBDbGllbnQwDQYJKoZIhvcNAQEFBQADgYEAXgQByce0We/tqbuB6onPW1bu
CJM+tmLa8CkJWbzW8qHNJ1MbCf3zzpJ0HVEEtVjTWVqW0YTfpH2GMGWLKgq64UgI
vSQCwIVrXdLXOYmGt0l5JvIQQjFWNdQjRx9cNJdZUwCq15lHbWJJ/y+bjYToW0WX
iTY/+pyV6xtM0HS9f2M=
-----END CERTIFICATE-----
