Certificate:
    Data:
        Version: 3 (0x2)
        Serial Number: 14 (0xe)
        Signature Algorithm: sha1WithRSAEncryption
        Issuer: C=fr, ST=RA, L=Grenoble, CN=www.blueeyevideo.com/emailAddress=info@blueeyevideo.com, O=BlueEyeVideo
        Validity
            Not Before: Jan  1 01:00:00 2011 GMT
            Not After : Aug 31 01:00:00 2012 GMT
        Subject: C=fr, ST=RA, L=GRENOBLE, O=PIP, OU=PIP2011, CN=www.blueeyevideo.com/emailAddress=info@blueeyevideo.com
        Subject Public Key Info:
            Public Key Algorithm: rsaEncryption
            RSA Public Key: (1024 bit)
                Modulus (1024 bit):
                    00:c7:1f:f0:7c:2f:1e:a6:63:07:46:d5:6e:f4:ee:
                    f8:b7:d4:59:46:fb:e7:0a:39:af:85:5b:11:c0:bd:
                    44:ed:c6:d2:68:fe:c0:3b:c7:96:1e:b3:3c:cc:2d:
                    c1:5d:fc:15:1f:a0:15:58:c1:e2:87:63:d9:ec:3b:
                    ee:71:aa:95:33:35:0d:60:c5:c7:0a:1c:f7:81:38:
                    94:78:3c:ef:91:0d:a7:4e:f3:e6:50:7b:20:12:8a:
                    80:09:55:0b:e9:14:8c:f6:8a:a7:89:df:04:73:e0:
                    75:96:4d:35:98:12:ab:c7:fd:ae:e9:cc:24:c0:79:
                    a4:84:82:87:d8:ef:aa:aa:01
                Exponent: 65537 (0x10001)
        X509v3 extensions:
            X509v3 Basic Constraints: 
                CA:FALSE
            Netscape Cert Type: 
                SSL Client
            X509v3 Key Usage: 
                Digital Signature, Key Encipherment
            X509v3 Extended Key Usage: 
                TLS Web Client Authentication
            Netscape Comment: 
                OpenSSL Certificate for SSL Client
    Signature Algorithm: sha1WithRSAEncryption
        bc:ce:87:88:4f:6a:23:9d:a9:01:14:5e:52:9f:9a:4f:02:85:
        70:65:aa:18:1f:9a:0f:5b:c9:11:2b:df:63:93:a1:ec:e9:75:
        a8:9f:59:14:ae:d7:5a:a1:b1:b3:94:e8:fa:2d:68:66:6e:02:
        00:1c:3b:b8:47:dd:b5:ab:98:3d:40:d1:10:39:0a:33:99:c9:
        50:ea:2c:a8:6b:4e:a2:eb:fc:1f:89:06:99:15:75:c8:3f:ba:
        17:54:48:60:20:95:62:95:17:43:27:51:7f:58:f0:07:4f:e5:
        32:68:9d:db:ec:85:76:e6:82:99:e0:c7:5c:19:74:5e:b0:c0:
        e5:f5
-----BEGIN CERTIFICATE-----
MIIDCDCCAnGgAwIBAgIBDjANBgkqhkiG9w0BAQUFADCBiTELMAkGA1UEBhMCZnIx
CzAJBgNVBAgTAlJBMREwDwYDVQQHEwhHcmVub2JsZTEdMBsGA1UEAxMUd3d3LmJs
dWVleWV2aWRlby5jb20xJDAiBgkqhkiG9w0BCQEWFWluZm9AYmx1ZWV5ZXZpZGVv
LmNvbTEVMBMGA1UEChMMQmx1ZUV5ZVZpZGVvMB4XDTExMDEwMTAxMDAwMFoXDTEy
MDgzMTAxMDAwMFowgZIxCzAJBgNVBAYTAmZyMQswCQYDVQQIEwJSQTERMA8GA1UE
BxMIR1JFTk9CTEUxDDAKBgNVBAoTA1BJUDEQMA4GA1UECxMHUElQMjAxMTEdMBsG
A1UEAxMUd3d3LmJsdWVleWV2aWRlby5jb20xJDAiBgkqhkiG9w0BCQEWFWluZm9A
Ymx1ZWV5ZXZpZGVvLmNvbTCBnzANBgkqhkiG9w0BAQEFAAOBjQAwgYkCgYEAxx/w
fC8epmMHRtVu9O74t9RZRvvnCjmvhVsRwL1E7cbSaP7AO8eWHrM8zC3BXfwVH6AV
WMHih2PZ7DvucaqVMzUNYMXHChz3gTiUeDzvkQ2nTvPmUHsgEoqACVUL6RSM9oqn
id8Ec+B1lk01mBKrx/2u6cwkwHmkhIKH2O+qqgECAwEAAaN1MHMwCQYDVR0TBAIw
ADARBglghkgBhvhCAQEEBAMCB4AwCwYDVR0PBAQDAgWgMBMGA1UdJQQMMAoGCCsG
AQUFBwMCMDEGCWCGSAGG+EIBDQQkFiJPcGVuU1NMIENlcnRpZmljYXRlIGZvciBT
U0wgQ2xpZW50MA0GCSqGSIb3DQEBBQUAA4GBALzOh4hPaiOdqQEUXlKfmk8ChXBl
qhgfmg9byREr32OToezpdaifWRSu11qhsbOU6PotaGZuAgAcO7hH3bWrmD1A0RA5
CjOZyVDqLKhrTqLr/B+JBpkVdcg/uhdUSGAglWKVF0MnUX9Y8AdP5TJondvshXbm
gpngx1wZdF6wwOX1
-----END CERTIFICATE-----
