Certificate:
    Data:
        Version: 3 (0x2)
        Serial Number: 25 (0x19)
        Signature Algorithm: sha1WithRSAEncryption
        Issuer: C=fr, ST=RA, L=Grenoble, CN=www.blueeyevideo.com/emailAddress=info@blueeyevideo.com, O=BlueEyeVideo
        Validity
            Not Before: Sep  1 01:00:00 2014 GMT
            Not After : Aug 31 01:00:00 2015 GMT
        Subject: C=fr, ST=RA, L=GRENOBLE, O=PIP, OU=PIP2014, CN=www.blueeyevideo.com/emailAddress=info@blueeyevideo.com
        Subject Public Key Info:
            Public Key Algorithm: rsaEncryption
            RSA Public Key: (1024 bit)
                Modulus (1024 bit):
                    00:b0:15:87:ff:53:c9:f0:f9:a3:98:36:b0:36:b4:
                    d7:4a:1c:57:57:a2:50:7f:da:5c:0a:5d:eb:a5:1b:
                    4c:8f:17:0b:ed:33:eb:e0:2a:85:e8:5c:3c:73:91:
                    8a:f2:3d:bb:4e:ec:0b:a8:a7:1b:d5:94:42:64:1d:
                    8b:b5:9c:0c:f6:ce:21:ca:59:5b:b5:b4:fd:40:e1:
                    d1:2b:63:3f:e7:c5:da:06:3f:3e:da:b6:a1:04:35:
                    13:90:f0:d2:6c:ca:53:82:14:08:e1:14:4a:38:e2:
                    50:41:3a:6d:56:8b:1a:f6:20:f5:8c:14:97:81:b3:
                    2f:a6:7b:78:49:bd:59:3d:57
                Exponent: 65537 (0x10001)
        X509v3 extensions:
            X509v3 Basic Constraints: 
                CA:FALSE
            Netscape Cert Type: 
                SSL Client
            X509v3 Key Usage: 
                Digital Signature, Key Encipherment
            X509v3 Extended Key Usage: 
                TLS Web Client Authentication
            Netscape Comment: 
                OpenSSL Certificate for SSL Client
    Signature Algorithm: sha1WithRSAEncryption
        bf:42:7f:54:de:1d:62:5b:2a:82:52:4a:48:49:89:05:57:81:
        10:aa:67:1e:8e:8c:67:01:bb:48:83:ef:d1:67:e4:a1:62:3b:
        fc:ab:6e:62:ad:5a:98:91:5d:0e:6b:30:1f:8e:6b:20:a3:e3:
        b6:5b:01:cc:4e:e3:21:aa:dd:e1:40:84:b6:ac:5e:f2:a3:a3:
        bc:3e:e1:77:e5:32:87:c3:99:d9:59:07:9d:52:6a:ac:cc:46:
        87:60:a4:b1:c1:7f:a9:b3:34:4b:69:bc:3f:29:0b:87:6c:ec:
        8b:db:2b:1a:24:a8:36:60:58:4f:a5:c9:2d:76:c0:9d:48:75:
        b3:b9
-----BEGIN CERTIFICATE-----
MIIDCDCCAnGgAwIBAgIBGTANBgkqhkiG9w0BAQUFADCBiTELMAkGA1UEBhMCZnIx
CzAJBgNVBAgTAlJBMREwDwYDVQQHEwhHcmVub2JsZTEdMBsGA1UEAxMUd3d3LmJs
dWVleWV2aWRlby5jb20xJDAiBgkqhkiG9w0BCQEWFWluZm9AYmx1ZWV5ZXZpZGVv
LmNvbTEVMBMGA1UEChMMQmx1ZUV5ZVZpZGVvMB4XDTE0MDkwMTAxMDAwMFoXDTE1
MDgzMTAxMDAwMFowgZIxCzAJBgNVBAYTAmZyMQswCQYDVQQIEwJSQTERMA8GA1UE
BxMIR1JFTk9CTEUxDDAKBgNVBAoTA1BJUDEQMA4GA1UECxMHUElQMjAxNDEdMBsG
A1UEAxMUd3d3LmJsdWVleWV2aWRlby5jb20xJDAiBgkqhkiG9w0BCQEWFWluZm9A
Ymx1ZWV5ZXZpZGVvLmNvbTCBnzANBgkqhkiG9w0BAQEFAAOBjQAwgYkCgYEAsBWH
/1PJ8PmjmDawNrTXShxXV6JQf9pcCl3rpRtMjxcL7TPr4CqF6Fw8c5GK8j27TuwL
qKcb1ZRCZB2LtZwM9s4hyllbtbT9QOHRK2M/58XaBj8+2rahBDUTkPDSbMpTghQI
4RRKOOJQQTptVosa9iD1jBSXgbMvpnt4Sb1ZPVcCAwEAAaN1MHMwCQYDVR0TBAIw
ADARBglghkgBhvhCAQEEBAMCB4AwCwYDVR0PBAQDAgWgMBMGA1UdJQQMMAoGCCsG
AQUFBwMCMDEGCWCGSAGG+EIBDQQkFiJPcGVuU1NMIENlcnRpZmljYXRlIGZvciBT
U0wgQ2xpZW50MA0GCSqGSIb3DQEBBQUAA4GBAL9Cf1TeHWJbKoJSSkhJiQVXgRCq
Zx6OjGcBu0iD79Fn5KFiO/yrbmKtWpiRXQ5rMB+OayCj47ZbAcxO4yGq3eFAhLas
XvKjo7w+4XflMofDmdlZB51SaqzMRodgpLHBf6mzNEtpvD8pC4ds7IvbKxokqDZg
WE+lyS12wJ1IdbO5
-----END CERTIFICATE-----
