Certificate:
    Data:
        Version: 3 (0x2)
        Serial Number: 8 (0x8)
        Signature Algorithm: sha1WithRSAEncryption
        Issuer: C=fr, ST=RA, L=Grenoble, CN=www.blueeyevideo.com/emailAddress=info@blueeyevideo.com, O=BlueEyeVideo
        Validity
            Not Before: Aug  6 01:00:00 2010 GMT
            Not After : Aug  6 01:00:00 2011 GMT
        Subject: C=fr, ST=RA, L=GRENOBLE, O=PIP, OU=PIP, CN=www.blueeyevideo.com/emailAddress=info@blueeyevideo.com
        Subject Public Key Info:
            Public Key Algorithm: rsaEncryption
            RSA Public Key: (1024 bit)
                Modulus (1024 bit):
                    00:af:c3:75:01:83:3f:05:49:ab:cc:2b:ce:5f:38:
                    bd:6f:0d:81:0b:93:dd:db:57:7a:68:84:9f:7a:a4:
                    43:9f:98:cc:b2:d5:c2:00:81:21:8c:e2:2a:7d:52:
                    a5:df:7f:a9:3d:1c:8e:c0:42:ef:29:08:0d:e0:70:
                    c3:d9:43:4f:c7:a6:cc:d3:4a:d8:a3:a3:c2:4b:44:
                    73:0e:8c:ee:12:a7:a4:53:59:ed:cb:f5:88:64:6e:
                    cb:4f:7b:aa:3a:f3:75:1f:d5:d7:6d:1b:f9:85:04:
                    dd:54:9c:55:3d:6c:2e:bb:ec:b5:67:f8:38:3d:f6:
                    61:c4:7d:38:e5:8e:63:e0:a7
                Exponent: 65537 (0x10001)
        X509v3 extensions:
            X509v3 Basic Constraints: 
                CA:FALSE
            Netscape Cert Type: 
                SSL Client
            X509v3 Key Usage: 
                Digital Signature, Key Encipherment
            X509v3 Extended Key Usage: 
                TLS Web Client Authentication
            Netscape Comment: 
                OpenSSL Certificate for SSL Client
    Signature Algorithm: sha1WithRSAEncryption
        79:2c:b6:ba:71:4e:1a:66:82:c9:f7:4c:d0:78:77:9d:a6:dc:
        de:b4:fc:e6:d7:49:40:4a:b9:77:c6:b5:9d:0c:c2:8e:89:df:
        13:18:df:b3:ef:ef:37:a2:1b:43:b0:07:d1:af:90:ca:a5:f1:
        19:c5:f2:41:de:12:d0:3b:c4:78:5e:93:5d:63:da:8f:76:03:
        63:30:68:6f:d0:57:eb:c7:64:f5:e8:b4:5c:2d:89:64:69:b6:
        ce:76:03:fa:3d:2b:d2:99:72:5f:3f:33:de:a2:52:eb:0d:2b:
        ad:7a:0e:33:59:9b:12:f8:3c:52:82:56:b7:51:d4:1e:04:0f:
        3d:db
-----BEGIN CERTIFICATE-----
MIIDBDCCAm2gAwIBAgIBCDANBgkqhkiG9w0BAQUFADCBiTELMAkGA1UEBhMCZnIx
CzAJBgNVBAgTAlJBMREwDwYDVQQHEwhHcmVub2JsZTEdMBsGA1UEAxMUd3d3LmJs
dWVleWV2aWRlby5jb20xJDAiBgkqhkiG9w0BCQEWFWluZm9AYmx1ZWV5ZXZpZGVv
LmNvbTEVMBMGA1UEChMMQmx1ZUV5ZVZpZGVvMB4XDTEwMDgwNjAxMDAwMFoXDTEx
MDgwNjAxMDAwMFowgY4xCzAJBgNVBAYTAmZyMQswCQYDVQQIEwJSQTERMA8GA1UE
BxMIR1JFTk9CTEUxDDAKBgNVBAoTA1BJUDEMMAoGA1UECxMDUElQMR0wGwYDVQQD
ExR3d3cuYmx1ZWV5ZXZpZGVvLmNvbTEkMCIGCSqGSIb3DQEJARYVaW5mb0BibHVl
ZXlldmlkZW8uY29tMIGfMA0GCSqGSIb3DQEBAQUAA4GNADCBiQKBgQCvw3UBgz8F
SavMK85fOL1vDYELk93bV3pohJ96pEOfmMyy1cIAgSGM4ip9UqXff6k9HI7AQu8p
CA3gcMPZQ0/HpszTStijo8JLRHMOjO4Sp6RTWe3L9YhkbstPe6o683Uf1ddtG/mF
BN1UnFU9bC677LVn+Dg99mHEfTjljmPgpwIDAQABo3UwczAJBgNVHRMEAjAAMBEG
CWCGSAGG+EIBAQQEAwIHgDALBgNVHQ8EBAMCBaAwEwYDVR0lBAwwCgYIKwYBBQUH
AwIwMQYJYIZIAYb4QgENBCQWIk9wZW5TU0wgQ2VydGlmaWNhdGUgZm9yIFNTTCBD
bGllbnQwDQYJKoZIhvcNAQEFBQADgYEAeSy2unFOGmaCyfdM0Hh3nabc3rT85tdJ
QEq5d8a1nQzCjonfExjfs+/vN6IbQ7AH0a+QyqXxGcXyQd4S0DvEeF6TXWPaj3YD
YzBob9BX68dk9ei0XC2JZGm2znYD+j0r0plyXz8z3qJS6w0rrXoOM1mbEvg8UoJW
t1HUHgQPPds=
-----END CERTIFICATE-----
