Certificate:
    Data:
        Version: 3 (0x2)
        Serial Number: 26 (0x1a)
        Signature Algorithm: sha1WithRSAEncryption
        Issuer: C=fr, ST=RA, L=Grenoble, CN=www.blueeyevideo.com/emailAddress=info@blueeyevideo.com, O=BlueEyeVideo
        Validity
            Not Before: Nov  7 01:00:00 2014 GMT
            Not After : Feb  5 01:00:00 2016 GMT
        Subject: C=fr, ST=RA, L=GRENOBLE, O=CRTBretagne, OU=test2015, CN=www.blueeyevideo.com/emailAddress=info@blueeyevideo.com
        Subject Public Key Info:
            Public Key Algorithm: rsaEncryption
            RSA Public Key: (1024 bit)
                Modulus (1024 bit):
                    00:b6:46:37:91:1f:37:ee:2c:4a:47:83:74:a9:2d:
                    42:a1:51:66:5a:fa:70:57:1c:70:84:3c:0a:d7:3c:
                    fa:e4:5f:84:bc:73:3d:39:74:51:64:62:09:10:15:
                    7e:d7:b6:43:b7:2f:40:37:ee:66:16:01:66:fd:bd:
                    01:83:7f:93:f8:4e:a1:36:67:50:bf:f4:fd:5b:d4:
                    ae:ae:5a:7f:25:2b:fa:b8:35:21:f4:d0:15:e6:b7:
                    ec:da:ee:ef:d3:72:a1:e2:59:c9:fa:67:8a:b5:5a:
                    25:76:2d:bd:61:ec:88:22:ea:d6:bb:e0:c5:a7:24:
                    95:6c:87:2c:6d:27:e1:59:b7
                Exponent: 65537 (0x10001)
        X509v3 extensions:
            X509v3 Basic Constraints: 
                CA:FALSE
            Netscape Cert Type: 
                SSL Client
            X509v3 Key Usage: 
                Digital Signature, Key Encipherment
            X509v3 Extended Key Usage: 
                TLS Web Client Authentication
            Netscape Comment: 
                OpenSSL Certificate for SSL Client
    Signature Algorithm: sha1WithRSAEncryption
        53:5f:7b:fc:27:80:8c:22:fd:77:9c:87:31:73:ba:08:53:56:
        38:77:1b:2e:da:9f:69:86:bd:80:b0:29:96:ab:09:f5:c5:10:
        cc:62:0d:ff:03:6b:e8:1e:c4:12:8a:5c:23:4c:21:8d:44:eb:
        a7:e4:11:7c:ba:e0:d6:e8:5b:43:e7:25:06:69:c1:45:c2:28:
        38:2f:54:23:d8:1a:c8:86:60:11:cb:97:7f:11:2c:54:4f:f5:
        e5:e4:65:3b:6e:c4:e8:95:06:ad:68:ee:ac:7d:ee:59:87:04:
        8e:66:d5:f7:96:88:05:e9:02:e4:e7:37:b7:0e:84:65:33:e1:
        18:82
-----BEGIN CERTIFICATE-----
MIIDETCCAnqgAwIBAgIBGjANBgkqhkiG9w0BAQUFADCBiTELMAkGA1UEBhMCZnIx
CzAJBgNVBAgTAlJBMREwDwYDVQQHEwhHcmVub2JsZTEdMBsGA1UEAxMUd3d3LmJs
dWVleWV2aWRlby5jb20xJDAiBgkqhkiG9w0BCQEWFWluZm9AYmx1ZWV5ZXZpZGVv
LmNvbTEVMBMGA1UEChMMQmx1ZUV5ZVZpZGVvMB4XDTE0MTEwNzAxMDAwMFoXDTE2
MDIwNTAxMDAwMFowgZsxCzAJBgNVBAYTAmZyMQswCQYDVQQIEwJSQTERMA8GA1UE
BxMIR1JFTk9CTEUxFDASBgNVBAoTC0NSVEJyZXRhZ25lMREwDwYDVQQLEwh0ZXN0
MjAxNTEdMBsGA1UEAxMUd3d3LmJsdWVleWV2aWRlby5jb20xJDAiBgkqhkiG9w0B
CQEWFWluZm9AYmx1ZWV5ZXZpZGVvLmNvbTCBnzANBgkqhkiG9w0BAQEFAAOBjQAw
gYkCgYEAtkY3kR837ixKR4N0qS1CoVFmWvpwVxxwhDwK1zz65F+EvHM9OXRRZGIJ
EBV+17ZDty9AN+5mFgFm/b0Bg3+T+E6hNmdQv/T9W9Surlp/JSv6uDUh9NAV5rfs
2u7v03Kh4lnJ+meKtVoldi29YeyIIurWu+DFpySVbIcsbSfhWbcCAwEAAaN1MHMw
CQYDVR0TBAIwADARBglghkgBhvhCAQEEBAMCB4AwCwYDVR0PBAQDAgWgMBMGA1Ud
JQQMMAoGCCsGAQUFBwMCMDEGCWCGSAGG+EIBDQQkFiJPcGVuU1NMIENlcnRpZmlj
YXRlIGZvciBTU0wgQ2xpZW50MA0GCSqGSIb3DQEBBQUAA4GBAFNfe/wngIwi/Xec
hzFzughTVjh3Gy7an2mGvYCwKZarCfXFEMxiDf8Da+gexBKKXCNMIY1E66fkEXy6
4NboW0PnJQZpwUXCKDgvVCPYGsiGYBHLl38RLFRP9eXkZTtuxOiVBq1o7qx97lmH
BI5m1feWiAXpAuTnN7cOhGUz4RiC
-----END CERTIFICATE-----
