Certificate:
    Data:
        Version: 3 (0x2)
        Serial Number: 17 (0x11)
        Signature Algorithm: sha1WithRSAEncryption
        Issuer: C=fr, ST=RA, L=Grenoble, CN=www.blueeyevideo.com/emailAddress=info@blueeyevideo.com, O=BlueEyeVideo
        Validity
            Not Before: Jan  1 01:00:00 2012 GMT
            Not After : Jan 31 01:00:00 2013 GMT
        Subject: C=fr, ST=RA, L=GRENOBLE, O=CRTBretagne, OU=CRTBretagne_2011, CN=www.blueeyevideo.com/emailAddress=info@blueeyevideo.com
        Subject Public Key Info:
            Public Key Algorithm: rsaEncryption
            RSA Public Key: (1024 bit)
                Modulus (1024 bit):
                    00:b1:fc:da:5a:19:1b:da:d2:e8:5a:05:b7:f9:c0:
                    9d:e7:1f:90:d7:ce:d8:ee:da:1a:e0:91:23:96:23:
                    7b:b9:77:b9:f8:83:11:92:ba:1f:a5:3c:e3:78:a2:
                    b9:29:8c:60:70:b7:d1:eb:5f:ce:18:01:20:c4:04:
                    14:2b:13:9a:75:a6:cf:57:fe:d5:fb:8d:c0:ca:86:
                    f7:ab:c3:78:ea:88:eb:79:f2:1f:ec:62:4e:9e:d2:
                    20:8c:93:a8:47:30:70:bd:56:5f:3a:a1:5d:53:1f:
                    95:5c:8d:73:ea:27:3a:6e:a4:ea:7b:f9:fa:d4:5d:
                    dc:a8:f5:72:c5:e1:42:39:fd
                Exponent: 65537 (0x10001)
        X509v3 extensions:
            X509v3 Basic Constraints: 
                CA:FALSE
            Netscape Cert Type: 
                SSL Client
            X509v3 Key Usage: 
                Digital Signature, Key Encipherment
            X509v3 Extended Key Usage: 
                TLS Web Client Authentication
            Netscape Comment: 
                OpenSSL Certificate for SSL Client
    Signature Algorithm: sha1WithRSAEncryption
        37:9f:67:b1:d2:2b:10:03:41:3d:22:91:77:c8:8b:e2:33:76:
        62:37:51:93:17:e8:62:fa:50:82:e4:ed:cb:a5:6b:8a:a8:80:
        64:15:5f:d1:2b:ee:00:f0:51:42:d7:ff:77:ef:fa:2a:00:0e:
        43:1f:4c:33:bb:0e:eb:ea:f2:27:ce:bc:fd:20:c0:c0:13:c4:
        ca:9a:66:ca:8b:88:e5:b3:fd:54:0c:41:0c:b4:b8:46:87:9e:
        a5:05:a4:0f:63:d6:53:02:9d:cd:07:28:e9:42:72:a9:df:f0:
        79:d6:e3:6f:4d:97:58:dc:5c:f9:45:2b:9b:c0:fa:1b:78:13:
        f3:33
-----BEGIN CERTIFICATE-----
MIIDGTCCAoKgAwIBAgIBETANBgkqhkiG9w0BAQUFADCBiTELMAkGA1UEBhMCZnIx
CzAJBgNVBAgTAlJBMREwDwYDVQQHEwhHcmVub2JsZTEdMBsGA1UEAxMUd3d3LmJs
dWVleWV2aWRlby5jb20xJDAiBgkqhkiG9w0BCQEWFWluZm9AYmx1ZWV5ZXZpZGVv
LmNvbTEVMBMGA1UEChMMQmx1ZUV5ZVZpZGVvMB4XDTEyMDEwMTAxMDAwMFoXDTEz
MDEzMTAxMDAwMFowgaMxCzAJBgNVBAYTAmZyMQswCQYDVQQIEwJSQTERMA8GA1UE
BxMIR1JFTk9CTEUxFDASBgNVBAoTC0NSVEJyZXRhZ25lMRkwFwYDVQQLFBBDUlRC
cmV0YWduZV8yMDExMR0wGwYDVQQDExR3d3cuYmx1ZWV5ZXZpZGVvLmNvbTEkMCIG
CSqGSIb3DQEJARYVaW5mb0BibHVlZXlldmlkZW8uY29tMIGfMA0GCSqGSIb3DQEB
AQUAA4GNADCBiQKBgQCx/NpaGRva0uhaBbf5wJ3nH5DXztju2hrgkSOWI3u5d7n4
gxGSuh+lPON4orkpjGBwt9HrX84YASDEBBQrE5p1ps9X/tX7jcDKhverw3jqiOt5
8h/sYk6e0iCMk6hHMHC9Vl86oV1TH5VcjXPqJzpupOp7+frUXdyo9XLF4UI5/QID
AQABo3UwczAJBgNVHRMEAjAAMBEGCWCGSAGG+EIBAQQEAwIHgDALBgNVHQ8EBAMC
BaAwEwYDVR0lBAwwCgYIKwYBBQUHAwIwMQYJYIZIAYb4QgENBCQWIk9wZW5TU0wg
Q2VydGlmaWNhdGUgZm9yIFNTTCBDbGllbnQwDQYJKoZIhvcNAQEFBQADgYEAN59n
sdIrEANBPSKRd8iL4jN2YjdRkxfoYvpQguTty6VriqiAZBVf0SvuAPBRQtf/d+/6
KgAOQx9MM7sO6+ryJ868/SDAwBPEyppmyouI5bP9VAxBDLS4RoeepQWkD2PWUwKd
zQco6UJyqd/wedbjb02XWNxc+UUrm8D6G3gT8zM=
-----END CERTIFICATE-----
