Certificate:
    Data:
        Version: 3 (0x2)
        Serial Number: 28 (0x1c)
        Signature Algorithm: sha1WithRSAEncryption
        Issuer: C=fr, ST=RA, L=Grenoble, CN=www.blueeyevideo.com/emailAddress=info@blueeyevideo.com, O=BlueEyeVideo
        Validity
            Not Before: Nov  1 01:00:00 2014 GMT
            Not After : Dec 31 01:00:00 2016 GMT
        Subject: C=fr, ST=RA, L=GRENOBLE, O=CRTBretagne, OU=CRTBretagne_2015_2, CN=www.blueeyevideo.com/emailAddress=info@blueeyevideo.com
        Subject Public Key Info:
            Public Key Algorithm: rsaEncryption
            RSA Public Key: (1024 bit)
                Modulus (1024 bit):
                    00:de:47:9b:bb:36:79:d9:5d:92:e2:0e:7d:23:ac:
                    9a:1e:37:30:c8:5f:b3:5b:db:dd:db:6e:15:6c:bc:
                    55:48:b2:dc:6a:9a:f6:27:dc:28:93:3a:80:7e:14:
                    f4:00:b1:ec:f8:02:e6:05:14:ef:94:f5:4b:ae:7a:
                    16:be:52:f5:29:97:78:a6:9c:fa:86:e1:12:6a:64:
                    3d:96:0b:c2:d6:ac:a5:99:ff:ce:65:7b:b3:d4:cc:
                    9d:d8:2b:8d:0e:61:9e:6e:e9:d1:13:9c:c0:aa:c1:
                    49:4a:e2:9b:4e:92:98:33:c4:24:5a:01:ee:ae:b6:
                    ab:1e:d5:6f:00:38:34:f1:d3
                Exponent: 65537 (0x10001)
        X509v3 extensions:
            X509v3 Basic Constraints: 
                CA:FALSE
            Netscape Cert Type: 
                SSL Client
            X509v3 Key Usage: 
                Digital Signature, Key Encipherment
            X509v3 Extended Key Usage: 
                TLS Web Client Authentication
            Netscape Comment: 
                OpenSSL Certificate for SSL Client
    Signature Algorithm: sha1WithRSAEncryption
        9d:a6:21:f8:b5:1a:75:6c:c6:5b:1d:f0:30:96:33:2a:76:73:
        6f:b0:c6:7c:f2:a1:76:1b:b7:4c:59:f7:eb:74:cf:fe:00:09:
        bc:54:0b:a2:1d:57:e1:23:59:f0:9b:98:54:6c:c5:ed:c1:45:
        4d:0b:a8:c9:b9:c2:31:a4:b8:d5:47:30:e0:2d:2f:67:98:51:
        60:a5:c1:ac:2d:82:c3:45:99:20:5c:12:b0:72:0d:5d:9e:e0:
        01:f3:c4:4c:8f:2f:b6:5e:51:50:8d:5b:d3:9b:a4:2b:05:b1:
        15:b1:64:65:c2:1a:ef:3f:4f:a1:71:48:6f:42:8c:06:20:c0:
        6e:8a
-----BEGIN CERTIFICATE-----
MIIDGzCCAoSgAwIBAgIBHDANBgkqhkiG9w0BAQUFADCBiTELMAkGA1UEBhMCZnIx
CzAJBgNVBAgTAlJBMREwDwYDVQQHEwhHcmVub2JsZTEdMBsGA1UEAxMUd3d3LmJs
dWVleWV2aWRlby5jb20xJDAiBgkqhkiG9w0BCQEWFWluZm9AYmx1ZWV5ZXZpZGVv
LmNvbTEVMBMGA1UEChMMQmx1ZUV5ZVZpZGVvMB4XDTE0MTEwMTAxMDAwMFoXDTE2
MTIzMTAxMDAwMFowgaUxCzAJBgNVBAYTAmZyMQswCQYDVQQIEwJSQTERMA8GA1UE
BxMIR1JFTk9CTEUxFDASBgNVBAoTC0NSVEJyZXRhZ25lMRswGQYDVQQLFBJDUlRC
cmV0YWduZV8yMDE1XzIxHTAbBgNVBAMTFHd3dy5ibHVlZXlldmlkZW8uY29tMSQw
IgYJKoZIhvcNAQkBFhVpbmZvQGJsdWVleWV2aWRlby5jb20wgZ8wDQYJKoZIhvcN
AQEBBQADgY0AMIGJAoGBAN5Hm7s2edldkuIOfSOsmh43MMhfs1vb3dtuFWy8VUiy
3Gqa9ifcKJM6gH4U9ACx7PgC5gUU75T1S656Fr5S9SmXeKac+obhEmpkPZYLwtas
pZn/zmV7s9TMndgrjQ5hnm7p0ROcwKrBSUrim06SmDPEJFoB7q62qx7VbwA4NPHT
AgMBAAGjdTBzMAkGA1UdEwQCMAAwEQYJYIZIAYb4QgEBBAQDAgeAMAsGA1UdDwQE
AwIFoDATBgNVHSUEDDAKBggrBgEFBQcDAjAxBglghkgBhvhCAQ0EJBYiT3BlblNT
TCBDZXJ0aWZpY2F0ZSBmb3IgU1NMIENsaWVudDANBgkqhkiG9w0BAQUFAAOBgQCd
piH4tRp1bMZbHfAwljMqdnNvsMZ88qF2G7dMWffrdM/+AAm8VAuiHVfhI1nwm5hU
bMXtwUVNC6jJucIxpLjVRzDgLS9nmFFgpcGsLYLDRZkgXBKwcg1dnuAB88RMjy+2
XlFQjVvTm6QrBbEVsWRlwhrvP0+hcUhvQowGIMBuig==
-----END CERTIFICATE-----
