Certificate:
    Data:
        Version: 3 (0x2)
        Serial Number: 7 (0x7)
        Signature Algorithm: sha1WithRSAEncryption
        Issuer: C=fr, ST=RA, L=Grenoble, CN=www.blueeyevideo.com/emailAddress=info@blueeyevideo.com, O=BlueEyeVideo
        Validity
            Not Before: May 25 01:00:00 2010 GMT
            Not After : Jul 31 01:00:00 2010 GMT
        Subject: C=fr, ST=RA, L=GRENOBLE, O=DemoChandan, OU=DemoChandan, CN=www.blueeyevideo.com/emailAddress=info@blueeyevideo.com
        Subject Public Key Info:
            Public Key Algorithm: rsaEncryption
            RSA Public Key: (1024 bit)
                Modulus (1024 bit):
                    00:c5:09:88:62:26:51:87:a7:6b:4b:ac:a8:1e:1f:
                    1f:7f:f7:b3:3d:14:dd:a0:85:05:fc:3b:1b:70:b2:
                    d6:90:19:c7:ec:14:3f:bb:8f:52:ca:3f:9f:24:bf:
                    46:f0:1d:b9:12:6a:2c:a6:7c:d9:89:67:40:12:e5:
                    bd:75:38:34:c9:52:41:d2:93:5c:28:45:f2:0d:41:
                    2e:c4:f5:54:cf:3b:18:43:0d:16:d3:7a:a4:59:e5:
                    ae:da:9d:4f:aa:22:fa:7f:2d:ef:dc:a2:d2:b3:bd:
                    fe:8f:e3:44:b5:d5:e8:4f:03:7e:c2:55:88:04:08:
                    82:13:92:76:d8:ea:4b:f8:3b
                Exponent: 65537 (0x10001)
        X509v3 extensions:
            X509v3 Basic Constraints: 
                CA:FALSE
            Netscape Cert Type: 
                SSL Client
            X509v3 Key Usage: 
                Digital Signature, Key Encipherment
            X509v3 Extended Key Usage: 
                TLS Web Client Authentication
            Netscape Comment: 
                OpenSSL Certificate for SSL Client
    Signature Algorithm: sha1WithRSAEncryption
        b1:8f:f6:ff:e0:1d:94:2a:5b:98:cf:bf:1f:df:2c:ae:09:70:
        d4:08:dd:eb:ab:c7:58:d0:66:83:e6:f5:a4:8b:51:f3:65:86:
        56:29:5f:4a:66:c7:5d:6c:2c:2c:77:71:45:f1:2f:57:7c:72:
        58:9e:eb:da:54:28:50:eb:2f:a2:94:2d:23:53:2e:54:25:c5:
        23:d2:ef:02:ed:9d:12:c8:48:a5:3d:9c:c4:87:86:47:39:46:
        5d:36:ca:18:40:fa:ff:b0:80:89:39:b5:19:b8:9a:89:2a:53:
        61:6f:c4:ea:d6:cd:ba:70:74:28:4f:38:dd:7d:85:ff:4c:e5:
        54:30
-----BEGIN CERTIFICATE-----
MIIDFDCCAn2gAwIBAgIBBzANBgkqhkiG9w0BAQUFADCBiTELMAkGA1UEBhMCZnIx
CzAJBgNVBAgTAlJBMREwDwYDVQQHEwhHcmVub2JsZTEdMBsGA1UEAxMUd3d3LmJs
dWVleWV2aWRlby5jb20xJDAiBgkqhkiG9w0BCQEWFWluZm9AYmx1ZWV5ZXZpZGVv
LmNvbTEVMBMGA1UEChMMQmx1ZUV5ZVZpZGVvMB4XDTEwMDUyNTAxMDAwMFoXDTEw
MDczMTAxMDAwMFowgZ4xCzAJBgNVBAYTAmZyMQswCQYDVQQIEwJSQTERMA8GA1UE
BxMIR1JFTk9CTEUxFDASBgNVBAoTC0RlbW9DaGFuZGFuMRQwEgYDVQQLEwtEZW1v
Q2hhbmRhbjEdMBsGA1UEAxMUd3d3LmJsdWVleWV2aWRlby5jb20xJDAiBgkqhkiG
9w0BCQEWFWluZm9AYmx1ZWV5ZXZpZGVvLmNvbTCBnzANBgkqhkiG9w0BAQEFAAOB
jQAwgYkCgYEAxQmIYiZRh6drS6yoHh8ff/ezPRTdoIUF/DsbcLLWkBnH7BQ/u49S
yj+fJL9G8B25EmospnzZiWdAEuW9dTg0yVJB0pNcKEXyDUEuxPVUzzsYQw0W03qk
WeWu2p1PqiL6fy3v3KLSs73+j+NEtdXoTwN+wlWIBAiCE5J22OpL+DsCAwEAAaN1
MHMwCQYDVR0TBAIwADARBglghkgBhvhCAQEEBAMCB4AwCwYDVR0PBAQDAgWgMBMG
A1UdJQQMMAoGCCsGAQUFBwMCMDEGCWCGSAGG+EIBDQQkFiJPcGVuU1NMIENlcnRp
ZmljYXRlIGZvciBTU0wgQ2xpZW50MA0GCSqGSIb3DQEBBQUAA4GBALGP9v/gHZQq
W5jPvx/fLK4JcNQI3eurx1jQZoPm9aSLUfNlhlYpX0pmx11sLCx3cUXxL1d8clie
69pUKFDrL6KULSNTLlQlxSPS7wLtnRLISKU9nMSHhkc5Rl02yhhA+v+wgIk5tRm4
mokqU2FvxOrWzbpwdChPON19hf9M5VQw
-----END CERTIFICATE-----
