Certificate:
    Data:
        Version: 3 (0x2)
        Serial Number: 22 (0x16)
        Signature Algorithm: sha1WithRSAEncryption
        Issuer: C=fr, ST=RA, L=Grenoble, CN=www.blueeyevideo.com/emailAddress=info@blueeyevideo.com, O=BlueEyeVideo
        Validity
            Not Before: Aug  1 01:00:00 2013 GMT
            Not After : Aug 31 01:00:00 2014 GMT
        Subject: C=fr, ST=RA, L=GRENOBLE, O=PIP, OU=PIP2013, CN=www.blueeyevideo.com/emailAddress=info@blueeyevideo.com
        Subject Public Key Info:
            Public Key Algorithm: rsaEncryption
            RSA Public Key: (1024 bit)
                Modulus (1024 bit):
                    00:bf:1d:ad:9b:ad:07:15:5a:94:e0:05:47:86:a8:
                    9c:c9:42:b9:76:50:8d:55:d1:bb:41:c5:1e:a7:3b:
                    2c:3c:b6:69:23:67:b0:ef:d4:39:d6:8c:38:53:98:
                    26:d4:68:82:25:25:eb:6d:dc:49:a0:7f:4f:aa:aa:
                    c3:64:56:0e:3f:15:4b:a3:15:ad:95:b2:1b:63:cd:
                    1e:ea:27:99:26:56:36:2f:92:92:25:b5:19:14:88:
                    b7:75:0f:36:b4:7b:20:9d:f1:24:56:26:ec:7f:74:
                    ea:43:d6:e0:4f:3c:b8:d8:f5:d9:ad:6c:c2:9e:10:
                    ae:76:b9:b1:34:e7:1e:d2:11
                Exponent: 65537 (0x10001)
        X509v3 extensions:
            X509v3 Basic Constraints: 
                CA:FALSE
            Netscape Cert Type: 
                SSL Client
            X509v3 Key Usage: 
                Digital Signature, Key Encipherment
            X509v3 Extended Key Usage: 
                TLS Web Client Authentication
            Netscape Comment: 
                OpenSSL Certificate for SSL Client
    Signature Algorithm: sha1WithRSAEncryption
        a6:52:3b:1a:36:bb:27:84:75:08:65:46:26:b4:60:be:45:20:
        7b:91:34:dc:01:a7:5b:95:08:ca:b8:8a:32:6e:9e:91:1d:52:
        94:74:0d:27:5b:6d:cd:e6:25:48:26:66:33:68:68:b6:8a:74:
        47:50:d4:8b:ff:ff:91:9f:bf:e6:d4:97:ce:2a:91:99:62:c0:
        5d:99:76:91:ce:2a:54:36:69:b4:32:dd:36:03:65:b5:f5:41:
        83:ac:da:cc:28:de:1d:25:b6:cc:b7:d7:08:76:a9:53:fb:dd:
        23:62:93:97:23:ce:c6:90:ea:be:01:17:2e:e5:b1:5c:b0:79:
        dc:8b
-----BEGIN CERTIFICATE-----
MIIDCDCCAnGgAwIBAgIBFjANBgkqhkiG9w0BAQUFADCBiTELMAkGA1UEBhMCZnIx
CzAJBgNVBAgTAlJBMREwDwYDVQQHEwhHcmVub2JsZTEdMBsGA1UEAxMUd3d3LmJs
dWVleWV2aWRlby5jb20xJDAiBgkqhkiG9w0BCQEWFWluZm9AYmx1ZWV5ZXZpZGVv
LmNvbTEVMBMGA1UEChMMQmx1ZUV5ZVZpZGVvMB4XDTEzMDgwMTAxMDAwMFoXDTE0
MDgzMTAxMDAwMFowgZIxCzAJBgNVBAYTAmZyMQswCQYDVQQIEwJSQTERMA8GA1UE
BxMIR1JFTk9CTEUxDDAKBgNVBAoTA1BJUDEQMA4GA1UECxMHUElQMjAxMzEdMBsG
A1UEAxMUd3d3LmJsdWVleWV2aWRlby5jb20xJDAiBgkqhkiG9w0BCQEWFWluZm9A
Ymx1ZWV5ZXZpZGVvLmNvbTCBnzANBgkqhkiG9w0BAQEFAAOBjQAwgYkCgYEAvx2t
m60HFVqU4AVHhqicyUK5dlCNVdG7QcUepzssPLZpI2ew79Q51ow4U5gm1GiCJSXr
bdxJoH9PqqrDZFYOPxVLoxWtlbIbY80e6ieZJlY2L5KSJbUZFIi3dQ82tHsgnfEk
Vibsf3TqQ9bgTzy42PXZrWzCnhCudrmxNOce0hECAwEAAaN1MHMwCQYDVR0TBAIw
ADARBglghkgBhvhCAQEEBAMCB4AwCwYDVR0PBAQDAgWgMBMGA1UdJQQMMAoGCCsG
AQUFBwMCMDEGCWCGSAGG+EIBDQQkFiJPcGVuU1NMIENlcnRpZmljYXRlIGZvciBT
U0wgQ2xpZW50MA0GCSqGSIb3DQEBBQUAA4GBAKZSOxo2uyeEdQhlRia0YL5FIHuR
NNwBp1uVCMq4ijJunpEdUpR0DSdbbc3mJUgmZjNoaLaKdEdQ1Iv//5Gfv+bUl84q
kZliwF2ZdpHOKlQ2abQy3TYDZbX1QYOs2swo3h0ltsy31wh2qVP73SNik5cjzsaQ
6r4BFy7lsVywedyL
-----END CERTIFICATE-----
