Certificate:
    Data:
        Version: 3 (0x2)
        Serial Number: 19 (0x13)
        Signature Algorithm: sha1WithRSAEncryption
        Issuer: C=fr, ST=RA, L=Grenoble, CN=www.blueeyevideo.com/emailAddress=info@blueeyevideo.com, O=BlueEyeVideo
        Validity
            Not Before: Aug  1 01:00:00 2012 GMT
            Not After : Aug 31 01:00:00 2013 GMT
        Subject: C=fr, ST=RA, L=GRENOBLE, O=PIP, OU=PIP2012, CN=www.blueeyevideo.com/emailAddress=info@blueeyevideo.com
        Subject Public Key Info:
            Public Key Algorithm: rsaEncryption
            RSA Public Key: (1024 bit)
                Modulus (1024 bit):
                    00:b8:56:a5:d5:4c:2c:67:90:a6:a9:9c:2e:70:53:
                    01:9e:a6:3e:12:bd:de:e8:40:8c:74:ab:e8:28:3d:
                    45:95:7f:69:a1:41:a7:7e:74:b6:4c:be:9c:39:d1:
                    d7:92:31:ac:ff:d1:17:83:51:3b:ea:24:a4:86:5f:
                    d8:24:0c:60:b4:c8:0d:0d:f9:7c:8b:73:9c:28:4c:
                    23:a7:88:f0:23:ca:7b:14:1f:9a:10:4f:81:f5:9c:
                    49:5f:e3:f7:01:fc:e7:b3:c7:14:4b:68:cc:55:ba:
                    26:65:d3:84:a0:a2:34:77:15:21:bc:89:3a:9e:25:
                    9f:85:ed:1d:91:01:77:f9:c7
                Exponent: 65537 (0x10001)
        X509v3 extensions:
            X509v3 Basic Constraints: 
                CA:FALSE
            Netscape Cert Type: 
                SSL Client
            X509v3 Key Usage: 
                Digital Signature, Key Encipherment
            X509v3 Extended Key Usage: 
                TLS Web Client Authentication
            Netscape Comment: 
                OpenSSL Certificate for SSL Client
    Signature Algorithm: sha1WithRSAEncryption
        54:53:16:20:09:7f:48:ce:49:5f:6e:07:d8:8f:2d:4f:5c:11:
        2d:82:ae:95:49:71:d0:25:01:68:9b:1f:c7:d1:ca:36:16:0d:
        a3:7a:20:88:9e:3e:cf:14:6a:52:e7:4c:12:5c:a2:68:44:9a:
        e4:50:a4:47:bc:ac:f3:2f:1a:0a:88:b6:67:7a:ac:dd:6c:f4:
        86:b6:89:85:dc:63:c7:af:77:60:01:94:76:aa:9f:f8:6b:7a:
        75:53:15:a6:3d:aa:fd:b7:6f:1d:1e:16:ef:d3:ea:1d:f9:27:
        c3:2b:25:0e:4b:02:5f:05:d1:7e:8c:4b:d5:b3:06:d1:99:a6:
        45:27
-----BEGIN CERTIFICATE-----
MIIDCDCCAnGgAwIBAgIBEzANBgkqhkiG9w0BAQUFADCBiTELMAkGA1UEBhMCZnIx
CzAJBgNVBAgTAlJBMREwDwYDVQQHEwhHcmVub2JsZTEdMBsGA1UEAxMUd3d3LmJs
dWVleWV2aWRlby5jb20xJDAiBgkqhkiG9w0BCQEWFWluZm9AYmx1ZWV5ZXZpZGVv
LmNvbTEVMBMGA1UEChMMQmx1ZUV5ZVZpZGVvMB4XDTEyMDgwMTAxMDAwMFoXDTEz
MDgzMTAxMDAwMFowgZIxCzAJBgNVBAYTAmZyMQswCQYDVQQIEwJSQTERMA8GA1UE
BxMIR1JFTk9CTEUxDDAKBgNVBAoTA1BJUDEQMA4GA1UECxMHUElQMjAxMjEdMBsG
A1UEAxMUd3d3LmJsdWVleWV2aWRlby5jb20xJDAiBgkqhkiG9w0BCQEWFWluZm9A
Ymx1ZWV5ZXZpZGVvLmNvbTCBnzANBgkqhkiG9w0BAQEFAAOBjQAwgYkCgYEAuFal
1UwsZ5CmqZwucFMBnqY+Er3e6ECMdKvoKD1FlX9poUGnfnS2TL6cOdHXkjGs/9EX
g1E76iSkhl/YJAxgtMgNDfl8i3OcKEwjp4jwI8p7FB+aEE+B9ZxJX+P3Afzns8cU
S2jMVbomZdOEoKI0dxUhvIk6niWfhe0dkQF3+ccCAwEAAaN1MHMwCQYDVR0TBAIw
ADARBglghkgBhvhCAQEEBAMCB4AwCwYDVR0PBAQDAgWgMBMGA1UdJQQMMAoGCCsG
AQUFBwMCMDEGCWCGSAGG+EIBDQQkFiJPcGVuU1NMIENlcnRpZmljYXRlIGZvciBT
U0wgQ2xpZW50MA0GCSqGSIb3DQEBBQUAA4GBAFRTFiAJf0jOSV9uB9iPLU9cES2C
rpVJcdAlAWibH8fRyjYWDaN6IIiePs8UalLnTBJcomhEmuRQpEe8rPMvGgqItmd6
rN1s9Ia2iYXcY8evd2ABlHaqn/hrenVTFaY9qv23bx0eFu/T6h35J8MrJQ5LAl8F
0X6MS9WzBtGZpkUn
-----END CERTIFICATE-----
