Certificate:
    Data:
        Version: 3 (0x2)
        Serial Number: 4 (0x4)
        Signature Algorithm: sha1WithRSAEncryption
        Issuer: C=fr, ST=RA, L=Grenoble, CN=www.blueeyevideo.com/emailAddress=info@blueeyevideo.com, O=BlueEyeVideo
        Validity
            Not Before: May  4 01:00:00 2010 GMT
            Not After : Jan 31 01:00:00 2011 GMT
        Subject: C=fr, ST=RA, L=GRENOBLE, O=CRTBretagne, OU=CRTBretagne, CN=www.blueeyevideo.com/emailAddress=info@blueeyevideo.com
        Subject Public Key Info:
            Public Key Algorithm: rsaEncryption
            RSA Public Key: (1024 bit)
                Modulus (1024 bit):
                    00:ca:0b:11:16:e6:66:b1:d7:63:da:bd:06:ad:d0:
                    e5:c0:01:39:b6:3a:17:a8:13:77:cc:4a:0c:76:28:
                    12:d4:71:d6:0c:7a:2b:72:be:bc:91:ff:ec:35:a6:
                    c8:30:42:e6:30:da:ab:8f:0c:79:27:04:b2:ec:dc:
                    b9:07:a3:9a:c7:da:69:19:0e:de:a9:35:a3:58:6f:
                    40:fe:55:b0:ae:46:3b:e9:aa:be:ce:6f:18:15:1b:
                    4a:be:2d:61:49:e7:6d:75:d8:e6:69:30:8e:00:27:
                    01:6e:79:f0:3a:fa:2f:9f:b5:2b:5f:16:e5:7d:5e:
                    2d:9e:71:f1:33:c7:e9:d0:93
                Exponent: 65537 (0x10001)
        X509v3 extensions:
            X509v3 Basic Constraints: 
                CA:FALSE
            Netscape Cert Type: 
                SSL Client
            X509v3 Key Usage: 
                Digital Signature, Key Encipherment
            X509v3 Extended Key Usage: 
                TLS Web Client Authentication
            Netscape Comment: 
                OpenSSL Certificate for SSL Client
    Signature Algorithm: sha1WithRSAEncryption
        a7:39:48:91:24:4b:f9:82:63:ad:1f:80:f1:89:1f:7a:8a:e1:
        df:82:a6:db:33:62:27:f0:eb:80:48:34:e7:ce:0f:f2:bc:27:
        f1:a1:0e:ba:7b:9f:08:70:a8:b7:5e:34:be:a5:db:24:33:70:
        ce:d6:fa:7d:fb:e2:6e:3a:5c:2a:d8:34:8e:8d:2a:96:c5:ec:
        8d:fe:2b:f3:3c:0c:6d:34:b0:17:45:01:fb:e2:f8:d3:35:a9:
        3c:61:b2:9e:b6:e8:12:55:64:0a:de:20:5e:6c:f5:a8:54:04:
        d3:fc:4b:78:0d:49:60:96:85:b3:52:77:40:4a:68:26:61:65:
        5d:67
-----BEGIN CERTIFICATE-----
MIIDFDCCAn2gAwIBAgIBBDANBgkqhkiG9w0BAQUFADCBiTELMAkGA1UEBhMCZnIx
CzAJBgNVBAgTAlJBMREwDwYDVQQHEwhHcmVub2JsZTEdMBsGA1UEAxMUd3d3LmJs
dWVleWV2aWRlby5jb20xJDAiBgkqhkiG9w0BCQEWFWluZm9AYmx1ZWV5ZXZpZGVv
LmNvbTEVMBMGA1UEChMMQmx1ZUV5ZVZpZGVvMB4XDTEwMDUwNDAxMDAwMFoXDTEx
MDEzMTAxMDAwMFowgZ4xCzAJBgNVBAYTAmZyMQswCQYDVQQIEwJSQTERMA8GA1UE
BxMIR1JFTk9CTEUxFDASBgNVBAoTC0NSVEJyZXRhZ25lMRQwEgYDVQQLEwtDUlRC
cmV0YWduZTEdMBsGA1UEAxMUd3d3LmJsdWVleWV2aWRlby5jb20xJDAiBgkqhkiG
9w0BCQEWFWluZm9AYmx1ZWV5ZXZpZGVvLmNvbTCBnzANBgkqhkiG9w0BAQEFAAOB
jQAwgYkCgYEAygsRFuZmsddj2r0GrdDlwAE5tjoXqBN3zEoMdigS1HHWDHorcr68
kf/sNabIMELmMNqrjwx5JwSy7Ny5B6Oax9ppGQ7eqTWjWG9A/lWwrkY76aq+zm8Y
FRtKvi1hSedtddjmaTCOACcBbnnwOvovn7UrXxblfV4tnnHxM8fp0JMCAwEAAaN1
MHMwCQYDVR0TBAIwADARBglghkgBhvhCAQEEBAMCB4AwCwYDVR0PBAQDAgWgMBMG
A1UdJQQMMAoGCCsGAQUFBwMCMDEGCWCGSAGG+EIBDQQkFiJPcGVuU1NMIENlcnRp
ZmljYXRlIGZvciBTU0wgQ2xpZW50MA0GCSqGSIb3DQEBBQUAA4GBAKc5SJEkS/mC
Y60fgPGJH3qK4d+CptszYifw64BINOfOD/K8J/GhDrp7nwhwqLdeNL6l2yQzcM7W
+n374m46XCrYNI6NKpbF7I3+K/M8DG00sBdFAfvi+NM1qTxhsp626BJVZAreIF5s
9ahUBNP8S3gNSWCWhbNSd0BKaCZhZV1n
-----END CERTIFICATE-----
