Certificate:
    Data:
        Version: 3 (0x2)
        Serial Number: 24 (0x18)
        Signature Algorithm: sha1WithRSAEncryption
        Issuer: C=fr, ST=RA, L=Grenoble, CN=www.blueeyevideo.com/emailAddress=info@blueeyevideo.com, O=BlueEyeVideo
        Validity
            Not Before: Jan  1 01:00:00 2014 GMT
            Not After : Jan 31 01:00:00 2015 GMT
        Subject: C=fr, ST=RA, L=GRENOBLE, O=CRTBretagne, OU=CRTBretagne_2014, CN=www.blueeyevideo.com/emailAddress=info@blueeyevideo.com
        Subject Public Key Info:
            Public Key Algorithm: rsaEncryption
            RSA Public Key: (1024 bit)
                Modulus (1024 bit):
                    00:d3:ef:0c:11:85:d2:8b:55:33:66:6a:6a:fb:50:
                    38:b9:19:e3:91:e5:70:ce:e1:0c:c2:25:38:9d:f3:
                    b9:9c:99:9a:06:5b:fd:f6:9b:d2:fd:f4:2b:67:c2:
                    60:58:1c:f4:37:97:71:57:96:ee:2d:21:fc:b7:ca:
                    65:28:eb:22:40:c3:ed:a9:23:43:54:01:07:7a:ad:
                    93:f8:7a:08:0e:e7:01:86:c0:f3:37:72:3d:b2:23:
                    15:36:d3:1e:75:13:52:19:f0:0e:d1:02:bc:e7:06:
                    3b:c0:c8:01:5d:72:fe:91:33:30:c2:c2:4f:8c:a5:
                    94:42:e1:df:46:62:7e:41:0d
                Exponent: 65537 (0x10001)
        X509v3 extensions:
            X509v3 Basic Constraints: 
                CA:FALSE
            Netscape Cert Type: 
                SSL Client
            X509v3 Key Usage: 
                Digital Signature, Key Encipherment
            X509v3 Extended Key Usage: 
                TLS Web Client Authentication
            Netscape Comment: 
                OpenSSL Certificate for SSL Client
    Signature Algorithm: sha1WithRSAEncryption
        7f:34:3d:ed:9c:52:e2:8b:0b:ba:61:64:9a:0d:2f:df:03:2a:
        b8:47:4e:a2:76:03:0f:34:8e:70:ee:9a:12:18:56:b2:ea:6e:
        f9:69:bc:02:b4:f8:1d:69:d2:b5:c1:4e:d8:4f:f1:ac:4f:4c:
        35:b6:c3:69:ad:7f:49:b4:36:85:53:fe:40:e7:e6:48:fe:17:
        0f:ce:f6:9c:03:f6:89:d1:af:91:c7:cc:b8:95:98:ec:8a:76:
        4b:53:e9:3d:70:a5:89:00:40:a6:1f:57:1b:ab:b7:40:da:c4:
        3d:81:6d:55:81:e8:da:8d:3e:d1:23:f7:0b:4c:bb:30:73:ba:
        f9:46
-----BEGIN CERTIFICATE-----
MIIDGTCCAoKgAwIBAgIBGDANBgkqhkiG9w0BAQUFADCBiTELMAkGA1UEBhMCZnIx
CzAJBgNVBAgTAlJBMREwDwYDVQQHEwhHcmVub2JsZTEdMBsGA1UEAxMUd3d3LmJs
dWVleWV2aWRlby5jb20xJDAiBgkqhkiG9w0BCQEWFWluZm9AYmx1ZWV5ZXZpZGVv
LmNvbTEVMBMGA1UEChMMQmx1ZUV5ZVZpZGVvMB4XDTE0MDEwMTAxMDAwMFoXDTE1
MDEzMTAxMDAwMFowgaMxCzAJBgNVBAYTAmZyMQswCQYDVQQIEwJSQTERMA8GA1UE
BxMIR1JFTk9CTEUxFDASBgNVBAoTC0NSVEJyZXRhZ25lMRkwFwYDVQQLFBBDUlRC
cmV0YWduZV8yMDE0MR0wGwYDVQQDExR3d3cuYmx1ZWV5ZXZpZGVvLmNvbTEkMCIG
CSqGSIb3DQEJARYVaW5mb0BibHVlZXlldmlkZW8uY29tMIGfMA0GCSqGSIb3DQEB
AQUAA4GNADCBiQKBgQDT7wwRhdKLVTNmamr7UDi5GeOR5XDO4QzCJTid87mcmZoG
W/32m9L99CtnwmBYHPQ3l3FXlu4tIfy3ymUo6yJAw+2pI0NUAQd6rZP4eggO5wGG
wPM3cj2yIxU20x51E1IZ8A7RArznBjvAyAFdcv6RMzDCwk+MpZRC4d9GYn5BDQID
AQABo3UwczAJBgNVHRMEAjAAMBEGCWCGSAGG+EIBAQQEAwIHgDALBgNVHQ8EBAMC
BaAwEwYDVR0lBAwwCgYIKwYBBQUHAwIwMQYJYIZIAYb4QgENBCQWIk9wZW5TU0wg
Q2VydGlmaWNhdGUgZm9yIFNTTCBDbGllbnQwDQYJKoZIhvcNAQEFBQADgYEAfzQ9
7ZxS4osLumFkmg0v3wMquEdOonYDDzSOcO6aEhhWsupu+Wm8ArT4HWnStcFO2E/x
rE9MNbbDaa1/SbQ2hVP+QOfmSP4XD872nAP2idGvkcfMuJWY7Ip2S1PpPXCliQBA
ph9XG6u3QNrEPYFtVYHo2o0+0SP3C0y7MHO6+UY=
-----END CERTIFICATE-----
