Certificate:
    Data:
        Version: 3 (0x2)
        Serial Number: 18 (0x12)
        Signature Algorithm: sha1WithRSAEncryption
        Issuer: C=fr, ST=RA, L=Grenoble, CN=www.blueeyevideo.com/emailAddress=info@blueeyevideo.com, O=BlueEyeVideo
        Validity
            Not Before: Jan  1 01:00:00 2012 GMT
            Not After : Jan 31 01:00:00 2013 GMT
        Subject: C=fr, ST=RA, L=GRENOBLE, O=CRTBretagne, OU=CRTBretagne_2012, CN=www.blueeyevideo.com/emailAddress=info@blueeyevideo.com
        Subject Public Key Info:
            Public Key Algorithm: rsaEncryption
            RSA Public Key: (1024 bit)
                Modulus (1024 bit):
                    00:ca:ee:15:f6:17:8a:44:d3:52:d9:e0:eb:21:ad:
                    6d:37:e8:8f:b3:19:15:f5:bf:56:df:6d:c6:6b:cf:
                    ea:fb:3e:6b:79:54:c3:8d:25:33:9c:f4:1f:d6:1e:
                    91:21:dd:fe:75:dd:38:82:49:25:46:65:0c:93:a3:
                    4c:f3:e9:e9:83:9b:fc:3a:39:0d:82:49:90:ce:75:
                    8e:9e:d8:e2:7a:dd:62:4b:dd:3d:62:71:5f:2e:1f:
                    e5:dc:bd:24:78:ca:d5:e7:b2:4c:8a:b0:42:30:6c:
                    dc:c0:c9:c0:59:7a:01:c6:88:b3:d8:d2:ac:7b:f8:
                    66:87:58:4a:fc:56:61:88:bd
                Exponent: 65537 (0x10001)
        X509v3 extensions:
            X509v3 Basic Constraints: 
                CA:FALSE
            Netscape Cert Type: 
                SSL Client
            X509v3 Key Usage: 
                Digital Signature, Key Encipherment
            X509v3 Extended Key Usage: 
                TLS Web Client Authentication
            Netscape Comment: 
                OpenSSL Certificate for SSL Client
    Signature Algorithm: sha1WithRSAEncryption
        69:c6:78:34:b0:2c:1e:bb:65:91:01:cc:45:87:b8:2c:db:32:
        4f:58:26:19:4c:86:0b:f2:69:74:de:a5:44:a3:65:4c:0b:ce:
        8a:ca:16:09:d9:8d:94:04:7c:84:f4:84:d3:29:a8:32:61:99:
        19:42:10:de:bd:c6:3e:9f:7a:bd:4c:e4:0a:75:51:52:43:bc:
        f3:d2:73:0e:21:a8:e8:79:55:3d:d5:3b:9c:3e:e6:d2:e5:56:
        79:3e:7a:7d:04:b3:e3:17:82:df:64:b1:b2:bc:19:b1:3d:16:
        01:6a:84:d9:79:ad:de:d3:cb:93:e9:26:3e:ff:aa:c3:ee:fb:
        65:ae
-----BEGIN CERTIFICATE-----
MIIDGTCCAoKgAwIBAgIBEjANBgkqhkiG9w0BAQUFADCBiTELMAkGA1UEBhMCZnIx
CzAJBgNVBAgTAlJBMREwDwYDVQQHEwhHcmVub2JsZTEdMBsGA1UEAxMUd3d3LmJs
dWVleWV2aWRlby5jb20xJDAiBgkqhkiG9w0BCQEWFWluZm9AYmx1ZWV5ZXZpZGVv
LmNvbTEVMBMGA1UEChMMQmx1ZUV5ZVZpZGVvMB4XDTEyMDEwMTAxMDAwMFoXDTEz
MDEzMTAxMDAwMFowgaMxCzAJBgNVBAYTAmZyMQswCQYDVQQIEwJSQTERMA8GA1UE
BxMIR1JFTk9CTEUxFDASBgNVBAoTC0NSVEJyZXRhZ25lMRkwFwYDVQQLFBBDUlRC
cmV0YWduZV8yMDEyMR0wGwYDVQQDExR3d3cuYmx1ZWV5ZXZpZGVvLmNvbTEkMCIG
CSqGSIb3DQEJARYVaW5mb0BibHVlZXlldmlkZW8uY29tMIGfMA0GCSqGSIb3DQEB
AQUAA4GNADCBiQKBgQDK7hX2F4pE01LZ4OshrW036I+zGRX1v1bfbcZrz+r7Pmt5
VMONJTOc9B/WHpEh3f513TiCSSVGZQyTo0zz6emDm/w6OQ2CSZDOdY6e2OJ63WJL
3T1icV8uH+XcvSR4ytXnskyKsEIwbNzAycBZegHGiLPY0qx7+GaHWEr8VmGIvQID
AQABo3UwczAJBgNVHRMEAjAAMBEGCWCGSAGG+EIBAQQEAwIHgDALBgNVHQ8EBAMC
BaAwEwYDVR0lBAwwCgYIKwYBBQUHAwIwMQYJYIZIAYb4QgENBCQWIk9wZW5TU0wg
Q2VydGlmaWNhdGUgZm9yIFNTTCBDbGllbnQwDQYJKoZIhvcNAQEFBQADgYEAacZ4
NLAsHrtlkQHMRYe4LNsyT1gmGUyGC/JpdN6lRKNlTAvOisoWCdmNlAR8hPSE0ymo
MmGZGUIQ3r3GPp96vUzkCnVRUkO889JzDiGo6HlVPdU7nD7m0uVWeT56fQSz4xeC
32SxsrwZsT0WAWqE2Xmt3tPLk+kmPv+qw+77Za4=
-----END CERTIFICATE-----
