Certificate:
    Data:
        Version: 3 (0x2)
        Serial Number: 23 (0x17)
        Signature Algorithm: sha1WithRSAEncryption
        Issuer: C=fr, ST=RA, L=Grenoble, CN=www.blueeyevideo.com/emailAddress=info@blueeyevideo.com, O=BlueEyeVideo
        Validity
            Not Before: Jan  1 01:00:00 2014 GMT
            Not After : Jan 31 01:00:00 2015 GMT
        Subject: C=fr, ST=RA, L=GRENOBLE, O=CRTBretagne, OU=CRTBretagne_2013, CN=www.blueeyevideo.com/emailAddress=info@blueeyevideo.com
        Subject Public Key Info:
            Public Key Algorithm: rsaEncryption
            RSA Public Key: (1024 bit)
                Modulus (1024 bit):
                    00:b3:d3:4b:18:6e:6b:0b:b2:a5:38:60:13:e9:67:
                    a6:cd:bb:07:b6:41:81:c8:24:c4:d8:03:f5:73:53:
                    85:c7:a9:53:77:fe:b3:b9:75:63:93:a0:17:97:df:
                    c3:56:da:31:30:0b:33:32:2f:27:c6:20:52:7b:d7:
                    08:5a:dc:06:7f:dc:b9:60:19:cd:af:e9:69:f3:52:
                    f0:25:37:01:c9:3e:3e:23:e5:f2:40:6d:a8:23:ad:
                    31:95:47:3b:76:72:92:f2:5c:97:75:c9:97:67:ea:
                    cb:6d:88:ae:4f:51:92:62:7c:1f:75:68:bb:e4:8c:
                    27:92:a6:63:49:eb:7b:b3:71
                Exponent: 65537 (0x10001)
        X509v3 extensions:
            X509v3 Basic Constraints: 
                CA:FALSE
            Netscape Cert Type: 
                SSL Client
            X509v3 Key Usage: 
                Digital Signature, Key Encipherment
            X509v3 Extended Key Usage: 
                TLS Web Client Authentication
            Netscape Comment: 
                OpenSSL Certificate for SSL Client
    Signature Algorithm: sha1WithRSAEncryption
        bb:e4:53:ca:8a:58:45:55:86:c9:49:24:3a:b8:4b:d5:90:45:
        84:03:52:09:94:5e:d6:90:20:fa:c0:23:cf:95:5b:99:61:79:
        8c:c6:5a:91:61:08:b2:18:03:f5:1b:45:3b:1f:c2:d0:4e:c6:
        ae:2a:39:93:d1:96:ae:3a:73:51:35:7a:4c:8f:58:fa:a6:1f:
        ef:c4:62:7d:e1:47:78:54:6a:a2:d6:7e:ac:a1:b2:dc:36:de:
        d0:ec:64:ec:fb:5e:6e:06:61:e9:6d:42:a4:72:de:79:24:1b:
        7d:13:44:6f:bc:af:6d:fb:fa:fc:e2:6b:72:26:c7:45:a6:cc:
        50:b2
-----BEGIN CERTIFICATE-----
MIIDGTCCAoKgAwIBAgIBFzANBgkqhkiG9w0BAQUFADCBiTELMAkGA1UEBhMCZnIx
CzAJBgNVBAgTAlJBMREwDwYDVQQHEwhHcmVub2JsZTEdMBsGA1UEAxMUd3d3LmJs
dWVleWV2aWRlby5jb20xJDAiBgkqhkiG9w0BCQEWFWluZm9AYmx1ZWV5ZXZpZGVv
LmNvbTEVMBMGA1UEChMMQmx1ZUV5ZVZpZGVvMB4XDTE0MDEwMTAxMDAwMFoXDTE1
MDEzMTAxMDAwMFowgaMxCzAJBgNVBAYTAmZyMQswCQYDVQQIEwJSQTERMA8GA1UE
BxMIR1JFTk9CTEUxFDASBgNVBAoTC0NSVEJyZXRhZ25lMRkwFwYDVQQLFBBDUlRC
cmV0YWduZV8yMDEzMR0wGwYDVQQDExR3d3cuYmx1ZWV5ZXZpZGVvLmNvbTEkMCIG
CSqGSIb3DQEJARYVaW5mb0BibHVlZXlldmlkZW8uY29tMIGfMA0GCSqGSIb3DQEB
AQUAA4GNADCBiQKBgQCz00sYbmsLsqU4YBPpZ6bNuwe2QYHIJMTYA/VzU4XHqVN3
/rO5dWOToBeX38NW2jEwCzMyLyfGIFJ71wha3AZ/3LlgGc2v6WnzUvAlNwHJPj4j
5fJAbagjrTGVRzt2cpLyXJd1yZdn6sttiK5PUZJifB91aLvkjCeSpmNJ63uzcQID
AQABo3UwczAJBgNVHRMEAjAAMBEGCWCGSAGG+EIBAQQEAwIHgDALBgNVHQ8EBAMC
BaAwEwYDVR0lBAwwCgYIKwYBBQUHAwIwMQYJYIZIAYb4QgENBCQWIk9wZW5TU0wg
Q2VydGlmaWNhdGUgZm9yIFNTTCBDbGllbnQwDQYJKoZIhvcNAQEFBQADgYEAu+RT
yopYRVWGyUkkOrhL1ZBFhANSCZRe1pAg+sAjz5VbmWF5jMZakWEIshgD9RtFOx/C
0E7Grio5k9GWrjpzUTV6TI9Y+qYf78RifeFHeFRqotZ+rKGy3Dbe0Oxk7PtebgZh
6W1CpHLeeSQbfRNEb7yvbfv6/OJrcibHRabMULI=
-----END CERTIFICATE-----
