Certificate:
    Data:
        Version: 3 (0x2)
        Serial Number: 27 (0x1b)
        Signature Algorithm: sha1WithRSAEncryption
        Issuer: C=fr, ST=RA, L=Grenoble, CN=www.blueeyevideo.com/emailAddress=info@blueeyevideo.com, O=BlueEyeVideo
        Validity
            Not Before: Nov  6 01:00:00 2014 GMT
            Not After : Jan  1 01:00:00 2017 GMT
        Subject: C=fr, ST=RA, L=GRENOBLE, O=CRTBretagne, OU=CRTBretagne_2015, CN=www.blueeyevideo.com/emailAddress=info@blueeyevideo.com
        Subject Public Key Info:
            Public Key Algorithm: rsaEncryption
            RSA Public Key: (1024 bit)
                Modulus (1024 bit):
                    00:c2:fb:dd:7c:36:ab:cb:80:ce:80:77:92:53:f0:
                    de:8b:a6:38:31:ea:c0:9a:51:a9:bd:6f:b2:64:e5:
                    23:62:7d:5d:b6:d2:05:ad:bb:86:a8:7a:cf:d5:8a:
                    21:79:2e:7b:70:bb:12:8e:1d:a4:94:29:83:be:0f:
                    85:3a:0c:aa:62:6b:f3:1c:74:21:15:00:d2:5a:c8:
                    9e:53:30:60:cd:48:95:96:bb:72:d7:a6:d7:0b:f4:
                    d6:08:33:ed:b2:59:4a:70:b3:0f:36:f1:54:b8:6f:
                    6e:c0:6c:09:38:72:be:a7:8f:92:d9:f1:e8:0e:13:
                    e6:ce:76:21:b2:51:b9:4c:59
                Exponent: 65537 (0x10001)
        X509v3 extensions:
            X509v3 Basic Constraints: 
                CA:FALSE
            Netscape Cert Type: 
                SSL Client
            X509v3 Key Usage: 
                Digital Signature, Key Encipherment
            X509v3 Extended Key Usage: 
                TLS Web Client Authentication
            Netscape Comment: 
                OpenSSL Certificate for SSL Client
    Signature Algorithm: sha1WithRSAEncryption
        aa:b5:5c:41:62:b2:0f:6a:d9:ab:5c:7e:01:1d:f5:46:7f:3e:
        dd:2d:d7:54:be:d6:d8:b0:8a:04:76:64:a3:5b:6f:41:4e:bf:
        73:d6:d0:6e:a2:5f:e1:31:f9:db:ec:c5:8f:a1:32:42:1e:d5:
        2d:4f:5b:84:ef:55:0e:5a:ca:33:ee:e1:40:84:36:11:d2:cc:
        62:e3:07:ec:eb:58:ef:9c:b5:d2:3e:ff:f9:ac:d7:97:7b:8f:
        e4:ce:05:b2:73:7f:6b:b9:92:d0:e5:d2:7a:73:14:b4:47:8d:
        06:8c:a9:5c:79:35:87:72:59:6f:53:95:32:8b:9b:f6:59:ed:
        b1:0e
-----BEGIN CERTIFICATE-----
MIIDGTCCAoKgAwIBAgIBGzANBgkqhkiG9w0BAQUFADCBiTELMAkGA1UEBhMCZnIx
CzAJBgNVBAgTAlJBMREwDwYDVQQHEwhHcmVub2JsZTEdMBsGA1UEAxMUd3d3LmJs
dWVleWV2aWRlby5jb20xJDAiBgkqhkiG9w0BCQEWFWluZm9AYmx1ZWV5ZXZpZGVv
LmNvbTEVMBMGA1UEChMMQmx1ZUV5ZVZpZGVvMB4XDTE0MTEwNjAxMDAwMFoXDTE3
MDEwMTAxMDAwMFowgaMxCzAJBgNVBAYTAmZyMQswCQYDVQQIEwJSQTERMA8GA1UE
BxMIR1JFTk9CTEUxFDASBgNVBAoTC0NSVEJyZXRhZ25lMRkwFwYDVQQLFBBDUlRC
cmV0YWduZV8yMDE1MR0wGwYDVQQDExR3d3cuYmx1ZWV5ZXZpZGVvLmNvbTEkMCIG
CSqGSIb3DQEJARYVaW5mb0BibHVlZXlldmlkZW8uY29tMIGfMA0GCSqGSIb3DQEB
AQUAA4GNADCBiQKBgQDC+918NqvLgM6Ad5JT8N6Lpjgx6sCaUam9b7Jk5SNifV22
0gWtu4aoes/ViiF5LntwuxKOHaSUKYO+D4U6DKpia/McdCEVANJayJ5TMGDNSJWW
u3LXptcL9NYIM+2yWUpwsw828VS4b27AbAk4cr6nj5LZ8egOE+bOdiGyUblMWQID
AQABo3UwczAJBgNVHRMEAjAAMBEGCWCGSAGG+EIBAQQEAwIHgDALBgNVHQ8EBAMC
BaAwEwYDVR0lBAwwCgYIKwYBBQUHAwIwMQYJYIZIAYb4QgENBCQWIk9wZW5TU0wg
Q2VydGlmaWNhdGUgZm9yIFNTTCBDbGllbnQwDQYJKoZIhvcNAQEFBQADgYEAqrVc
QWKyD2rZq1x+AR31Rn8+3S3XVL7W2LCKBHZko1tvQU6/c9bQbqJf4TH52+zFj6Ey
Qh7VLU9bhO9VDlrKM+7hQIQ2EdLMYuMH7OtY75y10j7/+azXl3uP5M4FsnN/a7mS
0OXSenMUtEeNBoypXHk1h3JZb1OVMoub9lntsQ4=
-----END CERTIFICATE-----
