Certificate:
    Data:
        Version: 3 (0x2)
        Serial Number: 6 (0x6)
        Signature Algorithm: sha1WithRSAEncryption
        Issuer: C=fr, ST=RA, L=Grenoble, CN=www.blueeyevideo.com/emailAddress=info@blueeyevideo.com, O=BlueEyeVideo
        Validity
            Not Before: May  1 01:00:00 2010 GMT
            Not After : Dec  1 01:00:00 2010 GMT
        Subject: C=fr, ST=RA, L=GRENOBLE, O=Demo01, OU=DemoConPros, CN=www.blueeyevideo.com/emailAddress=info@blueeyevideo.com
        Subject Public Key Info:
            Public Key Algorithm: rsaEncryption
            RSA Public Key: (1024 bit)
                Modulus (1024 bit):
                    00:be:f5:7c:60:b9:6f:04:06:0b:80:76:db:a1:cb:
                    09:1d:35:b5:57:e3:5c:7b:40:11:74:a3:aa:9b:3b:
                    3d:93:57:e3:14:ad:e0:fb:f9:47:b4:a3:ea:d1:e7:
                    9d:f2:ba:af:04:75:06:c9:3c:5e:c6:ae:c0:f7:3a:
                    98:2e:96:7d:12:3a:30:7f:64:b8:8d:53:95:ed:74:
                    9b:bf:8f:a1:6f:8c:12:f9:00:78:f3:c0:25:4b:74:
                    c7:4e:26:f8:cf:0f:ee:5a:01:30:b0:32:da:c8:fb:
                    bf:35:8c:3c:86:6c:c1:d5:7d:69:0f:90:6a:8d:30:
                    dc:cf:94:e8:49:37:69:0e:17
                Exponent: 65537 (0x10001)
        X509v3 extensions:
            X509v3 Basic Constraints: 
                CA:FALSE
            Netscape Cert Type: 
                SSL Client
            X509v3 Key Usage: 
                Digital Signature, Key Encipherment
            X509v3 Extended Key Usage: 
                TLS Web Client Authentication
            Netscape Comment: 
                OpenSSL Certificate for SSL Client
    Signature Algorithm: sha1WithRSAEncryption
        5c:f8:3d:e4:4f:b9:5a:98:e9:df:ed:58:1a:3b:9a:86:6a:b4:
        9c:9d:61:42:20:1e:e9:20:a2:17:be:21:67:d0:7b:6b:e2:82:
        6c:12:c8:b2:83:4f:72:e0:f5:a4:29:56:e5:f5:54:b4:c6:86:
        b5:44:98:40:f9:0a:23:50:7a:5c:b4:96:1c:03:05:50:37:5e:
        66:b2:85:1f:37:75:d2:37:42:a7:ac:1b:21:1f:80:60:98:0f:
        5d:8e:14:5a:03:5c:3c:f7:24:49:c5:00:cb:cd:47:0f:46:00:
        70:2c:d3:e6:73:d8:d6:a2:d4:01:75:ff:8a:33:6b:b6:74:c6:
        99:e3
-----BEGIN CERTIFICATE-----
MIIDDzCCAnigAwIBAgIBBjANBgkqhkiG9w0BAQUFADCBiTELMAkGA1UEBhMCZnIx
CzAJBgNVBAgTAlJBMREwDwYDVQQHEwhHcmVub2JsZTEdMBsGA1UEAxMUd3d3LmJs
dWVleWV2aWRlby5jb20xJDAiBgkqhkiG9w0BCQEWFWluZm9AYmx1ZWV5ZXZpZGVv
LmNvbTEVMBMGA1UEChMMQmx1ZUV5ZVZpZGVvMB4XDTEwMDUwMTAxMDAwMFoXDTEw
MTIwMTAxMDAwMFowgZkxCzAJBgNVBAYTAmZyMQswCQYDVQQIEwJSQTERMA8GA1UE
BxMIR1JFTk9CTEUxDzANBgNVBAoTBkRlbW8wMTEUMBIGA1UECxMLRGVtb0NvblBy
b3MxHTAbBgNVBAMTFHd3dy5ibHVlZXlldmlkZW8uY29tMSQwIgYJKoZIhvcNAQkB
FhVpbmZvQGJsdWVleWV2aWRlby5jb20wgZ8wDQYJKoZIhvcNAQEBBQADgY0AMIGJ
AoGBAL71fGC5bwQGC4B226HLCR01tVfjXHtAEXSjqps7PZNX4xSt4Pv5R7Sj6tHn
nfK6rwR1Bsk8XsauwPc6mC6WfRI6MH9kuI1Tle10m7+PoW+MEvkAePPAJUt0x04m
+M8P7loBMLAy2sj7vzWMPIZswdV9aQ+Qao0w3M+U6Ek3aQ4XAgMBAAGjdTBzMAkG
A1UdEwQCMAAwEQYJYIZIAYb4QgEBBAQDAgeAMAsGA1UdDwQEAwIFoDATBgNVHSUE
DDAKBggrBgEFBQcDAjAxBglghkgBhvhCAQ0EJBYiT3BlblNTTCBDZXJ0aWZpY2F0
ZSBmb3IgU1NMIENsaWVudDANBgkqhkiG9w0BAQUFAAOBgQBc+D3kT7lamOnf7Vga
O5qGarScnWFCIB7pIKIXviFn0Htr4oJsEsiyg09y4PWkKVbl9VS0xoa1RJhA+Qoj
UHpctJYcAwVQN15msoUfN3XSN0KnrBshH4BgmA9djhRaA1w89yRJxQDLzUcPRgBw
LNPmc9jWotQBdf+KM2u2dMaZ4w==
-----END CERTIFICATE-----
