Certificate:
    Data:
        Version: 3 (0x2)
        Serial Number: 5 (0x5)
        Signature Algorithm: sha1WithRSAEncryption
        Issuer: C=fr, ST=RA, L=Grenoble, CN=www.blueeyevideo.com/emailAddress=info@blueeyevideo.com, O=BlueEyeVideo
        Validity
            Not Before: May  1 01:00:00 2010 GMT
            Not After : Jun  1 01:00:00 2011 GMT
        Subject: C=fr, ST=RA, L=GRENOBLE, O=Demo01, OU=Demo01, CN=www.blueeyevideo.com/emailAddress=info@blueeyevideo.com
        Subject Public Key Info:
            Public Key Algorithm: rsaEncryption
            RSA Public Key: (1024 bit)
                Modulus (1024 bit):
                    00:cb:93:2f:f4:13:88:55:ac:4a:d1:4a:cf:08:28:
                    73:a8:22:d7:ec:5a:d6:9e:a0:49:ab:a4:6a:43:77:
                    7d:03:33:35:f2:78:f0:9c:ed:34:68:ba:db:59:16:
                    94:00:55:bc:18:f7:8b:ba:7f:7b:07:b0:fb:ad:a4:
                    35:73:24:5b:5b:91:e0:77:20:44:cb:2a:06:4f:b7:
                    80:16:bc:c9:c5:8e:29:74:4c:4e:b2:ff:e8:45:04:
                    66:86:d0:e4:0a:bc:5e:20:9b:f9:eb:22:f3:50:3f:
                    17:95:c2:99:4c:b3:42:ff:c2:6d:16:51:ca:f0:28:
                    db:70:cd:de:80:48:81:8d:33
                Exponent: 65537 (0x10001)
        X509v3 extensions:
            X509v3 Basic Constraints: 
                CA:FALSE
            Netscape Cert Type: 
                SSL Client
            X509v3 Key Usage: 
                Digital Signature, Key Encipherment
            X509v3 Extended Key Usage: 
                TLS Web Client Authentication
            Netscape Comment: 
                OpenSSL Certificate for SSL Client
    Signature Algorithm: sha1WithRSAEncryption
        66:f8:3b:79:15:e8:08:c2:37:d9:3b:ea:66:87:24:04:d6:2e:
        37:ed:26:44:0b:96:d3:56:07:45:25:c9:dd:63:7a:a3:ec:21:
        7c:a1:05:aa:fc:c0:a0:48:fa:1b:58:75:c4:47:99:ab:39:b2:
        01:41:3f:ac:40:c3:03:f3:4a:77:e3:4c:b0:00:78:37:b8:26:
        41:4f:32:61:12:90:e8:ab:2a:d4:a5:68:31:ac:c9:a2:47:40:
        15:5e:06:df:2a:b3:54:89:ec:c3:d4:8b:7b:27:7d:83:34:e6:
        27:a5:28:79:dd:9c:78:f1:1f:4f:89:d7:f4:92:34:24:af:d5:
        3a:fa
-----BEGIN CERTIFICATE-----
MIIDCjCCAnOgAwIBAgIBBTANBgkqhkiG9w0BAQUFADCBiTELMAkGA1UEBhMCZnIx
CzAJBgNVBAgTAlJBMREwDwYDVQQHEwhHcmVub2JsZTEdMBsGA1UEAxMUd3d3LmJs
dWVleWV2aWRlby5jb20xJDAiBgkqhkiG9w0BCQEWFWluZm9AYmx1ZWV5ZXZpZGVv
LmNvbTEVMBMGA1UEChMMQmx1ZUV5ZVZpZGVvMB4XDTEwMDUwMTAxMDAwMFoXDTEx
MDYwMTAxMDAwMFowgZQxCzAJBgNVBAYTAmZyMQswCQYDVQQIEwJSQTERMA8GA1UE
BxMIR1JFTk9CTEUxDzANBgNVBAoTBkRlbW8wMTEPMA0GA1UECxMGRGVtbzAxMR0w
GwYDVQQDExR3d3cuYmx1ZWV5ZXZpZGVvLmNvbTEkMCIGCSqGSIb3DQEJARYVaW5m
b0BibHVlZXlldmlkZW8uY29tMIGfMA0GCSqGSIb3DQEBAQUAA4GNADCBiQKBgQDL
ky/0E4hVrErRSs8IKHOoItfsWtaeoEmrpGpDd30DMzXyePCc7TRouttZFpQAVbwY
94u6f3sHsPutpDVzJFtbkeB3IETLKgZPt4AWvMnFjil0TE6y/+hFBGaG0OQKvF4g
m/nrIvNQPxeVwplMs0L/wm0WUcrwKNtwzd6ASIGNMwIDAQABo3UwczAJBgNVHRME
AjAAMBEGCWCGSAGG+EIBAQQEAwIHgDALBgNVHQ8EBAMCBaAwEwYDVR0lBAwwCgYI
KwYBBQUHAwIwMQYJYIZIAYb4QgENBCQWIk9wZW5TU0wgQ2VydGlmaWNhdGUgZm9y
IFNTTCBDbGllbnQwDQYJKoZIhvcNAQEFBQADgYEAZvg7eRXoCMI32TvqZockBNYu
N+0mRAuW01YHRSXJ3WN6o+whfKEFqvzAoEj6G1h1xEeZqzmyAUE/rEDDA/NKd+NM
sAB4N7gmQU8yYRKQ6Ksq1KVoMazJokdAFV4G3yqzVInsw9SLeyd9gzTmJ6Uoed2c
ePEfT4nX9JI0JK/VOvo=
-----END CERTIFICATE-----
