Certificate:
    Data:
        Version: 3 (0x2)
        Serial Number: 10 (0xa)
        Signature Algorithm: sha1WithRSAEncryption
        Issuer: C=fr, ST=RA, L=Grenoble, CN=www.blueeyevideo.com/emailAddress=info@blueeyevideo.com, O=BlueEyeVideo
        Validity
            Not Before: Jan  1 01:00:00 2011 GMT
            Not After : Jan  1 01:00:00 2012 GMT
        Subject: C=fr, ST=RA, L=GRENOBLE, O=Demo01, OU=Demo2011, CN=www.blueeyevideo.com/emailAddress=info@blueeyevideo.com
        Subject Public Key Info:
            Public Key Algorithm: rsaEncryption
            RSA Public Key: (1024 bit)
                Modulus (1024 bit):
                    00:c1:82:22:25:c1:4d:d1:cb:21:1f:0d:09:b1:7b:
                    e3:3a:7a:db:1c:83:c7:78:52:8a:27:33:8f:6c:e1:
                    63:00:9d:9c:bf:75:7d:24:8b:c4:58:ae:93:b8:8a:
                    6f:da:d1:27:fa:88:d5:79:4c:84:a4:bd:d9:94:5c:
                    cb:9a:91:9a:84:54:20:0e:5f:87:9f:e6:f4:56:df:
                    e9:e5:74:e5:f8:f3:59:c0:a9:c1:2e:cd:e2:d9:11:
                    79:22:7f:c2:9e:e1:00:48:89:ee:8c:f6:61:06:28:
                    79:87:ff:5c:de:99:ce:c5:91:31:77:49:e0:b8:2f:
                    34:8c:9a:78:9f:d4:92:f6:11
                Exponent: 65537 (0x10001)
        X509v3 extensions:
            X509v3 Basic Constraints: 
                CA:FALSE
            Netscape Cert Type: 
                SSL Client
            X509v3 Key Usage: 
                Digital Signature, Key Encipherment
            X509v3 Extended Key Usage: 
                TLS Web Client Authentication
            Netscape Comment: 
                OpenSSL Certificate for SSL Client
    Signature Algorithm: sha1WithRSAEncryption
        2f:21:2e:a7:57:e9:d7:05:b8:7c:4d:0f:1b:af:c2:67:25:69:
        d9:8e:19:4c:66:f6:c4:3c:f1:ef:dc:fd:31:6d:65:2b:3c:c4:
        24:18:9a:c9:50:d4:6e:bf:7d:12:72:1e:b1:57:b2:26:19:4a:
        af:12:75:52:f7:cd:0f:64:3d:23:a5:70:1f:0e:f5:17:64:51:
        e6:10:71:5f:7c:96:ef:62:c2:98:56:57:f7:09:ab:56:f1:29:
        74:26:5a:b5:6e:4f:13:55:d9:26:a8:ba:0f:b3:ae:81:20:7f:
        19:74:fb:0a:34:8f:47:ba:51:1c:fc:35:3a:08:58:91:10:e3:
        bb:ae
-----BEGIN CERTIFICATE-----
MIIDDDCCAnWgAwIBAgIBCjANBgkqhkiG9w0BAQUFADCBiTELMAkGA1UEBhMCZnIx
CzAJBgNVBAgTAlJBMREwDwYDVQQHEwhHcmVub2JsZTEdMBsGA1UEAxMUd3d3LmJs
dWVleWV2aWRlby5jb20xJDAiBgkqhkiG9w0BCQEWFWluZm9AYmx1ZWV5ZXZpZGVv
LmNvbTEVMBMGA1UEChMMQmx1ZUV5ZVZpZGVvMB4XDTExMDEwMTAxMDAwMFoXDTEy
MDEwMTAxMDAwMFowgZYxCzAJBgNVBAYTAmZyMQswCQYDVQQIEwJSQTERMA8GA1UE
BxMIR1JFTk9CTEUxDzANBgNVBAoTBkRlbW8wMTERMA8GA1UECxMIRGVtbzIwMTEx
HTAbBgNVBAMTFHd3dy5ibHVlZXlldmlkZW8uY29tMSQwIgYJKoZIhvcNAQkBFhVp
bmZvQGJsdWVleWV2aWRlby5jb20wgZ8wDQYJKoZIhvcNAQEBBQADgY0AMIGJAoGB
AMGCIiXBTdHLIR8NCbF74zp62xyDx3hSiiczj2zhYwCdnL91fSSLxFiuk7iKb9rR
J/qI1XlMhKS92ZRcy5qRmoRUIA5fh5/m9Fbf6eV05fjzWcCpwS7N4tkReSJ/wp7h
AEiJ7oz2YQYoeYf/XN6ZzsWRMXdJ4LgvNIyaeJ/UkvYRAgMBAAGjdTBzMAkGA1Ud
EwQCMAAwEQYJYIZIAYb4QgEBBAQDAgeAMAsGA1UdDwQEAwIFoDATBgNVHSUEDDAK
BggrBgEFBQcDAjAxBglghkgBhvhCAQ0EJBYiT3BlblNTTCBDZXJ0aWZpY2F0ZSBm
b3IgU1NMIENsaWVudDANBgkqhkiG9w0BAQUFAAOBgQAvIS6nV+nXBbh8TQ8br8Jn
JWnZjhlMZvbEPPHv3P0xbWUrPMQkGJrJUNRuv30Sch6xV7ImGUqvEnVS980PZD0j
pXAfDvUXZFHmEHFffJbvYsKYVlf3CatW8Sl0Jlq1bk8TVdkmqLoPs66BIH8ZdPsK
NI9HulEc/DU6CFiREOO7rg==
-----END CERTIFICATE-----
